ARM GAS  C:\Users\GEORGE~1\AppData\Local\Temp\ccgsAhbQ.s 			page 1


   1              		.syntax unified
   2              		.cpu cortex-m3
   3              		.fpu softvfp
   4              		.eabi_attribute 20, 1
   5              		.eabi_attribute 21, 1
   6              		.eabi_attribute 23, 3
   7              		.eabi_attribute 24, 1
   8              		.eabi_attribute 25, 1
   9              		.eabi_attribute 26, 1
  10              		.eabi_attribute 30, 1
  11              		.eabi_attribute 34, 1
  12              		.eabi_attribute 18, 4
  13              		.thumb
  14              		.syntax unified
  15              		.file	"main.c"
  16              		.text
  17              	.Ltext0:
  18              		.cfi_sections	.debug_frame
  19              		.section	.text.ByteReceived,"ax",%progbits
  20              		.align	2
  21              		.global	ByteReceived
  22              		.thumb
  23              		.thumb_func
  24              		.type	ByteReceived, %function
  25              	ByteReceived:
  26              	.LFB63:
  27              		.file 1 "main.c"
   1:main.c        **** /* ========================================
   2:main.c        ****  *
   3:main.c        ****  * Copyright YOUR COMPANY, THE YEAR
   4:main.c        ****  * All Rights Reserved
   5:main.c        ****  * UNPUBLISHED, LICENSED SOFTWARE.
   6:main.c        ****  *
   7:main.c        ****  * CONFIDENTIAL AND PROPRIETARY INFORMATION
   8:main.c        ****  * WHICH IS THE PROPERTY OF your company.
   9:main.c        ****  *
  10:main.c        ****  * ========================================
  11:main.c        **** */
  12:main.c        **** #include "project.h"
  13:main.c        **** 
  14:main.c        **** uint8 i;
  15:main.c        **** 
  16:main.c        **** uint8 LEDState = 0;
  17:main.c        **** int16 LEDPeriod = 1;
  18:main.c        **** 
  19:main.c        **** uint8 ByteCount = 0;
  20:main.c        **** 
  21:main.c        **** uint8 firstbyte = 0;
  22:main.c        **** uint8 CommandReady = 0;
  23:main.c        **** uint8 Count = 0;
  24:main.c        **** uint8 Status;
  25:main.c        **** 
  26:main.c        **** uint8 ReceivedBuffer[66];
  27:main.c        **** uint8 TransmitBuffer[66];
  28:main.c        **** 
  29:main.c        **** int32  DataI32[16];
  30:main.c        **** uint16 DataU16[32];
ARM GAS  C:\Users\GEORGE~1\AppData\Local\Temp\ccgsAhbQ.s 			page 2


  31:main.c        **** 
  32:main.c        **** 
  33:main.c        **** 
  34:main.c        **** 
  35:main.c        **** struct command_protocol
  36:main.c        **** {
  37:main.c        ****     uint8 packet_size;
  38:main.c        ****     uint8 command;
  39:main.c        ****     uint8 buffer[64];
  40:main.c        **** } Command_Packet;
  41:main.c        **** 
  42:main.c        **** struct command_protocol Transmit_Packet;
  43:main.c        **** 
  44:main.c        **** CY_ISR(ByteReceived)
  45:main.c        **** { 
  28              		.loc 1 45 0
  29              		.cfi_startproc
  30              		@ args = 0, pretend = 0, frame = 0
  31              		@ frame_needed = 0, uses_anonymous_args = 0
  32 0000 38B5     		push	{r3, r4, r5, lr}
  33              		.cfi_def_cfa_offset 16
  34              		.cfi_offset 3, -16
  35              		.cfi_offset 4, -12
  36              		.cfi_offset 5, -8
  37              		.cfi_offset 14, -4
  46:main.c        ****     LEDDrive_Write(1);
  38              		.loc 1 46 0
  39 0002 0120     		movs	r0, #1
  40 0004 FFF7FEFF 		bl	LEDDrive_Write
  41              	.LVL0:
  47:main.c        ****     ReceivedBuffer[ByteCount++] = (uint8) (LabVIEW_UART_GetByte()&0x00ff);
  42              		.loc 1 47 0
  43 0008 0D4C     		ldr	r4, .L4
  44 000a 2578     		ldrb	r5, [r4]	@ zero_extendqisi2
  45 000c 6B1C     		adds	r3, r5, #1
  46 000e 2370     		strb	r3, [r4]
  47 0010 FFF7FEFF 		bl	LabVIEW_UART_GetByte
  48              	.LVL1:
  49 0014 0B4B     		ldr	r3, .L4+4
  50 0016 5855     		strb	r0, [r3, r5]
  48:main.c        ****     if(firstbyte == 0)
  51              		.loc 1 48 0
  52 0018 6378     		ldrb	r3, [r4, #1]	@ zero_extendqisi2
  53 001a 2BB9     		cbnz	r3, .L2
  49:main.c        ****     {
  50:main.c        ****         ByteCounter_WriteCompare(ReceivedBuffer[0]);
  54              		.loc 1 50 0
  55 001c 094B     		ldr	r3, .L4+4
  56 001e 1878     		ldrb	r0, [r3]	@ zero_extendqisi2
  57 0020 FFF7FEFF 		bl	ByteCounter_WriteCompare
  58              	.LVL2:
  51:main.c        ****         firstbyte = 1;
  59              		.loc 1 51 0
  60 0024 0122     		movs	r2, #1
  61 0026 6270     		strb	r2, [r4, #1]
  62              	.L2:
  52:main.c        ****    
ARM GAS  C:\Users\GEORGE~1\AppData\Local\Temp\ccgsAhbQ.s 			page 3


  53:main.c        ****     }
  54:main.c        ****     Count = ByteCounter_ReadCounter();
  63              		.loc 1 54 0
  64 0028 FFF7FEFF 		bl	ByteCounter_ReadCounter
  65              	.LVL3:
  66 002c 044B     		ldr	r3, .L4
  67 002e 9870     		strb	r0, [r3, #2]
  55:main.c        ****     Status = ByteCounter_ReadStatusRegister();
  68              		.loc 1 55 0
  69 0030 FFF7FEFF 		bl	ByteCounter_ReadStatusRegister
  70              	.LVL4:
  71 0034 044B     		ldr	r3, .L4+8
  72 0036 1870     		strb	r0, [r3]
  56:main.c        ****     LEDDrive_Write(0);
  73              		.loc 1 56 0
  74 0038 0020     		movs	r0, #0
  75 003a FFF7FEFF 		bl	LEDDrive_Write
  76              	.LVL5:
  77 003e 38BD     		pop	{r3, r4, r5, pc}
  78              	.L5:
  79              		.align	2
  80              	.L4:
  81 0040 00000000 		.word	.LANCHOR0
  82 0044 00000000 		.word	ReceivedBuffer
  83 0048 00000000 		.word	Status
  84              		.cfi_endproc
  85              	.LFE63:
  86              		.size	ByteReceived, .-ByteReceived
  87              		.section	.text.CommandReceived,"ax",%progbits
  88              		.align	2
  89              		.global	CommandReceived
  90              		.thumb
  91              		.thumb_func
  92              		.type	CommandReceived, %function
  93              	CommandReceived:
  94              	.LFB64:
  57:main.c        **** }
  58:main.c        **** 
  59:main.c        **** CY_ISR(CommandReceived)
  60:main.c        **** {
  95              		.loc 1 60 0
  96              		.cfi_startproc
  97              		@ args = 0, pretend = 0, frame = 0
  98              		@ frame_needed = 0, uses_anonymous_args = 0
  99 0000 08B5     		push	{r3, lr}
 100              		.cfi_def_cfa_offset 8
 101              		.cfi_offset 3, -8
 102              		.cfi_offset 14, -4
  61:main.c        ****     uint8 i;
  62:main.c        ****     
  63:main.c        ****     if(CommandReady == 0)
 103              		.loc 1 63 0
 104 0002 114B     		ldr	r3, .L11
 105 0004 DB78     		ldrb	r3, [r3, #3]	@ zero_extendqisi2
 106 0006 C3B9     		cbnz	r3, .L7
  64:main.c        ****     {
  65:main.c        ****         Command_Packet.packet_size = ReceivedBuffer[0];
ARM GAS  C:\Users\GEORGE~1\AppData\Local\Temp\ccgsAhbQ.s 			page 4


 107              		.loc 1 65 0
 108 0008 104A     		ldr	r2, .L11+4
 109 000a 1078     		ldrb	r0, [r2]	@ zero_extendqisi2
 110 000c 104B     		ldr	r3, .L11+8
 111 000e 1870     		strb	r0, [r3]
  66:main.c        ****         Command_Packet.command = ReceivedBuffer[1];
 112              		.loc 1 66 0
 113 0010 5278     		ldrb	r2, [r2, #1]	@ zero_extendqisi2
 114 0012 5A70     		strb	r2, [r3, #1]
 115              	.LVL6:
  67:main.c        ****     
  68:main.c        ****         for(i=0;i<(Command_Packet.packet_size - 2);i++)
 116              		.loc 1 68 0
 117 0014 0023     		movs	r3, #0
 118 0016 07E0     		b	.L8
 119              	.LVL7:
 120              	.L9:
  69:main.c        ****         {
  70:main.c        ****             Command_Packet.buffer[i] =  ReceivedBuffer[i+2];
 121              		.loc 1 70 0 discriminator 3
 122 0018 9A1C     		adds	r2, r3, #2
 123 001a 0C49     		ldr	r1, .L11+4
 124 001c 895C     		ldrb	r1, [r1, r2]	@ zero_extendqisi2
 125 001e 0C4A     		ldr	r2, .L11+8
 126 0020 1A44     		add	r2, r2, r3
 127 0022 9170     		strb	r1, [r2, #2]
  68:main.c        ****         {
 128              		.loc 1 68 0 discriminator 3
 129 0024 0133     		adds	r3, r3, #1
 130              	.LVL8:
 131 0026 DBB2     		uxtb	r3, r3
 132              	.LVL9:
 133              	.L8:
  68:main.c        ****         {
 134              		.loc 1 68 0 is_stmt 0 discriminator 1
 135 0028 821E     		subs	r2, r0, #2
 136 002a 9342     		cmp	r3, r2
 137 002c F4DB     		blt	.L9
  71:main.c        ****         }
  72:main.c        ****     
  73:main.c        ****         firstbyte = 0;
 138              		.loc 1 73 0 is_stmt 1
 139 002e 064B     		ldr	r3, .L11
 140              	.LVL10:
 141 0030 0022     		movs	r2, #0
 142 0032 5A70     		strb	r2, [r3, #1]
  74:main.c        ****         CommandReady = 1;
 143              		.loc 1 74 0
 144 0034 0121     		movs	r1, #1
 145 0036 D970     		strb	r1, [r3, #3]
  75:main.c        ****         ByteCount = 0;
 146              		.loc 1 75 0
 147 0038 1A70     		strb	r2, [r3]
 148              	.L7:
  76:main.c        ****     }
  77:main.c        ****     ByteCounter_ReadStatusRegister();
 149              		.loc 1 77 0
ARM GAS  C:\Users\GEORGE~1\AppData\Local\Temp\ccgsAhbQ.s 			page 5


 150 003a FFF7FEFF 		bl	ByteCounter_ReadStatusRegister
 151              	.LVL11:
  78:main.c        ****     LEDDrive_Write(0);
 152              		.loc 1 78 0
 153 003e 0020     		movs	r0, #0
 154 0040 FFF7FEFF 		bl	LEDDrive_Write
 155              	.LVL12:
 156 0044 08BD     		pop	{r3, pc}
 157              	.L12:
 158 0046 00BF     		.align	2
 159              	.L11:
 160 0048 00000000 		.word	.LANCHOR0
 161 004c 00000000 		.word	ReceivedBuffer
 162 0050 00000000 		.word	Command_Packet
 163              		.cfi_endproc
 164              	.LFE64:
 165              		.size	CommandReceived, .-CommandReceived
 166              		.section	.text.TimerInterrupt,"ax",%progbits
 167              		.align	2
 168              		.global	TimerInterrupt
 169              		.thumb
 170              		.thumb_func
 171              		.type	TimerInterrupt, %function
 172              	TimerInterrupt:
 173              	.LFB65:
  79:main.c        **** }
  80:main.c        **** 
  81:main.c        **** 
  82:main.c        **** 
  83:main.c        **** CY_ISR(TimerInterrupt)
  84:main.c        **** {
 174              		.loc 1 84 0
 175              		.cfi_startproc
 176              		@ args = 0, pretend = 0, frame = 0
 177              		@ frame_needed = 0, uses_anonymous_args = 0
 178 0000 08B5     		push	{r3, lr}
 179              		.cfi_def_cfa_offset 8
 180              		.cfi_offset 3, -8
 181              		.cfi_offset 14, -4
  85:main.c        ****     LEDDrive_Write((LEDState++)&0x01);
 182              		.loc 1 85 0
 183 0002 054B     		ldr	r3, .L15
 184 0004 1879     		ldrb	r0, [r3, #4]	@ zero_extendqisi2
 185 0006 421C     		adds	r2, r0, #1
 186 0008 1A71     		strb	r2, [r3, #4]
 187 000a 00F00100 		and	r0, r0, #1
 188 000e FFF7FEFF 		bl	LEDDrive_Write
 189              	.LVL13:
  86:main.c        ****     Timer_1_ReadStatusRegister();
 190              		.loc 1 86 0
 191 0012 FFF7FEFF 		bl	Timer_1_ReadStatusRegister
 192              	.LVL14:
 193 0016 08BD     		pop	{r3, pc}
 194              	.L16:
 195              		.align	2
 196              	.L15:
 197 0018 00000000 		.word	.LANCHOR0
ARM GAS  C:\Users\GEORGE~1\AppData\Local\Temp\ccgsAhbQ.s 			page 6


 198              		.cfi_endproc
 199              	.LFE65:
 200              		.size	TimerInterrupt, .-TimerInterrupt
 201              		.section	.text.main,"ax",%progbits
 202              		.align	2
 203              		.global	main
 204              		.thumb
 205              		.thumb_func
 206              		.type	main, %function
 207              	main:
 208              	.LFB66:
  87:main.c        **** }
  88:main.c        ****     
  89:main.c        **** 
  90:main.c        **** int main(void)
  91:main.c        **** {
 209              		.loc 1 91 0
 210              		.cfi_startproc
 211              		@ Volatile: function does not return.
 212              		@ args = 0, pretend = 0, frame = 0
 213              		@ frame_needed = 0, uses_anonymous_args = 0
 214 0000 08B5     		push	{r3, lr}
 215              		.cfi_def_cfa_offset 8
 216              		.cfi_offset 3, -8
 217              		.cfi_offset 14, -4
  92:main.c        ****     
  93:main.c        ****     UARTReset_Write(0);
 218              		.loc 1 93 0
 219 0002 0020     		movs	r0, #0
 220 0004 FFF7FEFF 		bl	UARTReset_Write
 221              	.LVL15:
  94:main.c        ****     ByteCountReset_Write(0);
 222              		.loc 1 94 0
 223 0008 0020     		movs	r0, #0
 224 000a FFF7FEFF 		bl	ByteCountReset_Write
 225              	.LVL16:
  95:main.c        ****     
  96:main.c        ****     LabVIEW_UART_Start();
 226              		.loc 1 96 0
 227 000e FFF7FEFF 		bl	LabVIEW_UART_Start
 228              	.LVL17:
  97:main.c        ****     
  98:main.c        ****     
  99:main.c        ****     TimerReset_Write(0);
 229              		.loc 1 99 0
 230 0012 0020     		movs	r0, #0
 231 0014 FFF7FEFF 		bl	TimerReset_Write
 232              	.LVL18:
 100:main.c        ****     Timer_1_Start();
 233              		.loc 1 100 0
 234 0018 FFF7FEFF 		bl	Timer_1_Start
 235              	.LVL19:
 101:main.c        ****     TimerReset_Write(1);
 236              		.loc 1 101 0
 237 001c 0120     		movs	r0, #1
 238 001e FFF7FEFF 		bl	TimerReset_Write
 239              	.LVL20:
ARM GAS  C:\Users\GEORGE~1\AppData\Local\Temp\ccgsAhbQ.s 			page 7


 102:main.c        ****     
 103:main.c        ****     TimerInterrupt_Start();
 240              		.loc 1 103 0
 241 0022 FFF7FEFF 		bl	TimerInterrupt_Start
 242              	.LVL21:
 104:main.c        ****     TimerInterrupt_StartEx(TimerInterrupt);
 243              		.loc 1 104 0
 244 0026 7A48     		ldr	r0, .L42
 245 0028 FFF7FEFF 		bl	TimerInterrupt_StartEx
 246              	.LVL22:
 105:main.c        ****     
 106:main.c        ****     Timer_1_Stop();
 247              		.loc 1 106 0
 248 002c FFF7FEFF 		bl	Timer_1_Stop
 249              	.LVL23:
 107:main.c        ****     
 108:main.c        ****     ByteCounter_Start();
 250              		.loc 1 108 0
 251 0030 FFF7FEFF 		bl	ByteCounter_Start
 252              	.LVL24:
 109:main.c        ****     ByteCounter_Enable();
 253              		.loc 1 109 0
 254 0034 FFF7FEFF 		bl	ByteCounter_Enable
 255              	.LVL25:
 110:main.c        ****     ByteCounter_SetInterruptMode(ByteCounter_STATUS_CMP_INT_EN_MASK);
 256              		.loc 1 110 0
 257 0038 0120     		movs	r0, #1
 258 003a FFF7FEFF 		bl	ByteCounter_SetInterruptMode
 259              	.LVL26:
 111:main.c        ****     
 112:main.c        ****     ByteReceived_Start();
 260              		.loc 1 112 0
 261 003e FFF7FEFF 		bl	ByteReceived_Start
 262              	.LVL27:
 113:main.c        ****     ByteReceived_StartEx(ByteReceived);
 263              		.loc 1 113 0
 264 0042 7448     		ldr	r0, .L42+4
 265 0044 FFF7FEFF 		bl	ByteReceived_StartEx
 266              	.LVL28:
 114:main.c        ****     ByteReceived_Enable();
 267              		.loc 1 114 0
 268 0048 FFF7FEFF 		bl	ByteReceived_Enable
 269              	.LVL29:
 115:main.c        ****     
 116:main.c        ****     CommandReceived_Start();
 270              		.loc 1 116 0
 271 004c FFF7FEFF 		bl	CommandReceived_Start
 272              	.LVL30:
 117:main.c        ****     CommandReceived_StartEx(CommandReceived);
 273              		.loc 1 117 0
 274 0050 7148     		ldr	r0, .L42+8
 275 0052 FFF7FEFF 		bl	CommandReceived_StartEx
 276              	.LVL31:
 118:main.c        ****     CommandReceived_Enable();
 277              		.loc 1 118 0
 278 0056 FFF7FEFF 		bl	CommandReceived_Enable
 279              	.LVL32:
ARM GAS  C:\Users\GEORGE~1\AppData\Local\Temp\ccgsAhbQ.s 			page 8


 119:main.c        ****     
 120:main.c        ****     CyGlobalIntEnable; /* Enable global interrupts. */
 280              		.loc 1 120 0
 281              		.syntax unified
 282              	@ 120 "main.c" 1
 283 005a 62B6     		CPSIE   i
 284              	@ 0 "" 2
 285              		.thumb
 286              		.syntax unified
 287              	.L18:
 121:main.c        **** 
 122:main.c        ****     /* Place your initialization/startup code here (e.g. MyInst_Start()) */
 123:main.c        ****     
 124:main.c        ****     for(;;)
 125:main.c        ****     {
 126:main.c        ****     if(CommandReady)
 288              		.loc 1 126 0
 289 005c 6F4B     		ldr	r3, .L42+12
 290 005e DB78     		ldrb	r3, [r3, #3]	@ zero_extendqisi2
 291 0060 002B     		cmp	r3, #0
 292 0062 FBD0     		beq	.L18
 127:main.c        ****         {
 128:main.c        ****             Transmit_Packet.command = Command_Packet.command;
 293              		.loc 1 128 0
 294 0064 6E4B     		ldr	r3, .L42+16
 295 0066 5A78     		ldrb	r2, [r3, #1]	@ zero_extendqisi2
 296 0068 6E48     		ldr	r0, .L42+20
 297 006a 4270     		strb	r2, [r0, #1]
 129:main.c        ****             TransmitBuffer[1] = Transmit_Packet.command;
 298              		.loc 1 129 0
 299 006c 6E49     		ldr	r1, .L42+24
 300 006e 4A70     		strb	r2, [r1, #1]
 130:main.c        ****             Transmit_Packet.packet_size = Command_Packet.packet_size;
 301              		.loc 1 130 0
 302 0070 1B78     		ldrb	r3, [r3]	@ zero_extendqisi2
 303 0072 0370     		strb	r3, [r0]
 131:main.c        ****             TransmitBuffer[0] = Transmit_Packet.packet_size;
 304              		.loc 1 131 0
 305 0074 0B70     		strb	r3, [r1]
 132:main.c        ****             
 133:main.c        ****             switch(Command_Packet.command)
 306              		.loc 1 133 0
 307 0076 042A     		cmp	r2, #4
 308 0078 00F2C480 		bhi	.L19
 309 007c DFE802F0 		tbb	[pc, r2]
 310              	.L21:
 311 0080 03       		.byte	(.L20-.L21)/2
 312 0081 1F       		.byte	(.L22-.L21)/2
 313 0082 56       		.byte	(.L23-.L21)/2
 314 0083 84       		.byte	(.L24-.L21)/2
 315 0084 A6       		.byte	(.L25-.L21)/2
 316 0085 00       		.p2align 1
 317              	.L20:
 134:main.c        ****             {
 135:main.c        ****                 case 0: // Start Timer
 136:main.c        ****                     for(i=0;i<Transmit_Packet.packet_size;i++)
 318              		.loc 1 136 0
ARM GAS  C:\Users\GEORGE~1\AppData\Local\Temp\ccgsAhbQ.s 			page 9


 319 0086 0021     		movs	r1, #0
 320 0088 684A     		ldr	r2, .L42+28
 321 008a 1170     		strb	r1, [r2]
 322 008c 0BE0     		b	.L26
 323              	.L27:
 137:main.c        ****                     {
 138:main.c        ****                             Transmit_Packet.buffer[i+2] = Command_Packet.buffer[i];
 324              		.loc 1 138 0 discriminator 3
 325 008e 901C     		adds	r0, r2, #2
 326 0090 6349     		ldr	r1, .L42+16
 327 0092 1144     		add	r1, r1, r2
 328 0094 8C78     		ldrb	r4, [r1, #2]	@ zero_extendqisi2
 329 0096 6349     		ldr	r1, .L42+20
 330 0098 0144     		add	r1, r1, r0
 331 009a 8C70     		strb	r4, [r1, #2]
 139:main.c        ****                             TransmitBuffer[i+2] = Transmit_Packet.buffer[i+2];
 332              		.loc 1 139 0 discriminator 3
 333 009c 6249     		ldr	r1, .L42+24
 334 009e 0C54     		strb	r4, [r1, r0]
 136:main.c        ****                     {
 335              		.loc 1 136 0 discriminator 3
 336 00a0 0132     		adds	r2, r2, #1
 337 00a2 6249     		ldr	r1, .L42+28
 338 00a4 0A70     		strb	r2, [r1]
 339              	.L26:
 136:main.c        ****                     {
 340              		.loc 1 136 0 is_stmt 0 discriminator 1
 341 00a6 614A     		ldr	r2, .L42+28
 342 00a8 1278     		ldrb	r2, [r2]	@ zero_extendqisi2
 343 00aa 9342     		cmp	r3, r2
 344 00ac EFD8     		bhi	.L27
 140:main.c        ****                     }
 141:main.c        ****                     CommandReady = 0;
 345              		.loc 1 141 0 is_stmt 1
 346 00ae 0020     		movs	r0, #0
 347 00b0 5A4B     		ldr	r3, .L42+12
 348 00b2 D870     		strb	r0, [r3, #3]
 142:main.c        ****                     
 143:main.c        ****                     TimerReset_Write(0);
 349              		.loc 1 143 0
 350 00b4 FFF7FEFF 		bl	TimerReset_Write
 351              	.LVL33:
 144:main.c        ****                     Timer_1_Start();
 352              		.loc 1 144 0
 353 00b8 FFF7FEFF 		bl	Timer_1_Start
 354              	.LVL34:
 145:main.c        ****                    
 146:main.c        ****                 break;
 355              		.loc 1 146 0
 356 00bc A2E0     		b	.L19
 357              	.L22:
 147:main.c        ****                 case 1: // Store I32
 148:main.c        ****                     for(i=0;i<Transmit_Packet.packet_size;i++)
 358              		.loc 1 148 0
 359 00be 0021     		movs	r1, #0
 360 00c0 5A4A     		ldr	r2, .L42+28
 361 00c2 1170     		strb	r1, [r2]
ARM GAS  C:\Users\GEORGE~1\AppData\Local\Temp\ccgsAhbQ.s 			page 10


 362 00c4 0BE0     		b	.L28
 363              	.L29:
 149:main.c        ****                     {
 150:main.c        ****                             Transmit_Packet.buffer[i+2] = Command_Packet.buffer[i];
 364              		.loc 1 150 0 discriminator 3
 365 00c6 901C     		adds	r0, r2, #2
 366 00c8 5549     		ldr	r1, .L42+16
 367 00ca 1144     		add	r1, r1, r2
 368 00cc 8C78     		ldrb	r4, [r1, #2]	@ zero_extendqisi2
 369 00ce 5549     		ldr	r1, .L42+20
 370 00d0 0144     		add	r1, r1, r0
 371 00d2 8C70     		strb	r4, [r1, #2]
 151:main.c        ****                             TransmitBuffer[i+2] = Transmit_Packet.buffer[i+2];
 372              		.loc 1 151 0 discriminator 3
 373 00d4 5449     		ldr	r1, .L42+24
 374 00d6 0C54     		strb	r4, [r1, r0]
 148:main.c        ****                     {
 375              		.loc 1 148 0 discriminator 3
 376 00d8 0132     		adds	r2, r2, #1
 377 00da 5449     		ldr	r1, .L42+28
 378 00dc 0A70     		strb	r2, [r1]
 379              	.L28:
 148:main.c        ****                     {
 380              		.loc 1 148 0 is_stmt 0 discriminator 1
 381 00de 534A     		ldr	r2, .L42+28
 382 00e0 1278     		ldrb	r2, [r2]	@ zero_extendqisi2
 383 00e2 9342     		cmp	r3, r2
 384 00e4 EFD8     		bhi	.L29
 152:main.c        ****                     }
 153:main.c        ****                     CommandReady = 0;
 385              		.loc 1 153 0 is_stmt 1
 386 00e6 0023     		movs	r3, #0
 387 00e8 4C4A     		ldr	r2, .L42+12
 388 00ea D370     		strb	r3, [r2, #3]
 154:main.c        ****                     for(i=0;i<16;i++)
 389              		.loc 1 154 0
 390 00ec 4F4A     		ldr	r2, .L42+28
 391 00ee 1370     		strb	r3, [r2]
 392 00f0 17E0     		b	.L30
 393              	.L31:
 155:main.c        ****                     {
 156:main.c        ****                         DataI32[i] =  (int32) ((Command_Packet.buffer[4*i+3] <<8)|(Command_Packet.b
 394              		.loc 1 156 0 discriminator 3
 395 00f2 9A00     		lsls	r2, r3, #2
 396 00f4 D11C     		adds	r1, r2, #3
 397 00f6 4A48     		ldr	r0, .L42+16
 398 00f8 0144     		add	r1, r1, r0
 399 00fa 8D78     		ldrb	r5, [r1, #2]	@ zero_extendqisi2
 400 00fc 941C     		adds	r4, r2, #2
 401 00fe 0444     		add	r4, r4, r0
 402 0100 A178     		ldrb	r1, [r4, #2]	@ zero_extendqisi2
 403 0102 41EA0521 		orr	r1, r1, r5, lsl #8
 404 0106 541C     		adds	r4, r2, #1
 405 0108 0444     		add	r4, r4, r0
 406 010a A478     		ldrb	r4, [r4, #2]	@ zero_extendqisi2
 407 010c 41EA0421 		orr	r1, r1, r4, lsl #8
 408 0110 0244     		add	r2, r2, r0
ARM GAS  C:\Users\GEORGE~1\AppData\Local\Temp\ccgsAhbQ.s 			page 11


 409 0112 9278     		ldrb	r2, [r2, #2]	@ zero_extendqisi2
 410 0114 1143     		orrs	r1, r1, r2
 411 0116 464A     		ldr	r2, .L42+32
 412 0118 42F82310 		str	r1, [r2, r3, lsl #2]
 154:main.c        ****                     for(i=0;i<16;i++)
 413              		.loc 1 154 0 discriminator 3
 414 011c 0133     		adds	r3, r3, #1
 415 011e 434A     		ldr	r2, .L42+28
 416 0120 1370     		strb	r3, [r2]
 417              	.L30:
 154:main.c        ****                     for(i=0;i<16;i++)
 418              		.loc 1 154 0 is_stmt 0 discriminator 1
 419 0122 424B     		ldr	r3, .L42+28
 420 0124 1B78     		ldrb	r3, [r3]	@ zero_extendqisi2
 421 0126 0F2B     		cmp	r3, #15
 422 0128 E3D9     		bls	.L31
 423 012a 6BE0     		b	.L19
 424              	.L23:
 157:main.c        ****                     }
 158:main.c        ****                     
 159:main.c        ****                     
 160:main.c        ****                 break;
 161:main.c        ****                 case 2: // Store U16
 162:main.c        ****                     for(i=0;i<Transmit_Packet.packet_size;i++)
 425              		.loc 1 162 0 is_stmt 1
 426 012c 0021     		movs	r1, #0
 427 012e 3F4A     		ldr	r2, .L42+28
 428 0130 1170     		strb	r1, [r2]
 429 0132 0BE0     		b	.L32
 430              	.L33:
 163:main.c        ****                     {
 164:main.c        ****                             Transmit_Packet.buffer[i+2] = Command_Packet.buffer[i];
 431              		.loc 1 164 0 discriminator 3
 432 0134 901C     		adds	r0, r2, #2
 433 0136 3A49     		ldr	r1, .L42+16
 434 0138 1144     		add	r1, r1, r2
 435 013a 8C78     		ldrb	r4, [r1, #2]	@ zero_extendqisi2
 436 013c 3949     		ldr	r1, .L42+20
 437 013e 0144     		add	r1, r1, r0
 438 0140 8C70     		strb	r4, [r1, #2]
 165:main.c        ****                             TransmitBuffer[i+2] = Transmit_Packet.buffer[i+2];
 439              		.loc 1 165 0 discriminator 3
 440 0142 3949     		ldr	r1, .L42+24
 441 0144 0C54     		strb	r4, [r1, r0]
 162:main.c        ****                     {
 442              		.loc 1 162 0 discriminator 3
 443 0146 0132     		adds	r2, r2, #1
 444 0148 3849     		ldr	r1, .L42+28
 445 014a 0A70     		strb	r2, [r1]
 446              	.L32:
 162:main.c        ****                     {
 447              		.loc 1 162 0 is_stmt 0 discriminator 1
 448 014c 374A     		ldr	r2, .L42+28
 449 014e 1278     		ldrb	r2, [r2]	@ zero_extendqisi2
 450 0150 9342     		cmp	r3, r2
 451 0152 EFD8     		bhi	.L33
 166:main.c        ****                     }
ARM GAS  C:\Users\GEORGE~1\AppData\Local\Temp\ccgsAhbQ.s 			page 12


 167:main.c        ****                     CommandReady = 0;
 452              		.loc 1 167 0 is_stmt 1
 453 0154 0023     		movs	r3, #0
 454 0156 314A     		ldr	r2, .L42+12
 455 0158 D370     		strb	r3, [r2, #3]
 168:main.c        ****                     
 169:main.c        ****                     for(i=0;i<32;i++)
 456              		.loc 1 169 0
 457 015a 344A     		ldr	r2, .L42+28
 458 015c 1370     		strb	r3, [r2]
 459 015e 0EE0     		b	.L34
 460              	.L35:
 170:main.c        ****                     {
 171:main.c        ****                         DataU16[i] =  (uint16) ((Command_Packet.buffer[2*i+1] <<8)|(Command_Packet.
 461              		.loc 1 171 0 discriminator 3
 462 0160 5A00     		lsls	r2, r3, #1
 463 0162 511C     		adds	r1, r2, #1
 464 0164 2E48     		ldr	r0, .L42+16
 465 0166 0144     		add	r1, r1, r0
 466 0168 8978     		ldrb	r1, [r1, #2]	@ zero_extendqisi2
 467 016a 0244     		add	r2, r2, r0
 468 016c 9278     		ldrb	r2, [r2, #2]	@ zero_extendqisi2
 469 016e 42EA0122 		orr	r2, r2, r1, lsl #8
 470 0172 3049     		ldr	r1, .L42+36
 471 0174 21F81320 		strh	r2, [r1, r3, lsl #1]	@ movhi
 169:main.c        ****                     {
 472              		.loc 1 169 0 discriminator 3
 473 0178 0133     		adds	r3, r3, #1
 474 017a 2C4A     		ldr	r2, .L42+28
 475 017c 1370     		strb	r3, [r2]
 476              	.L34:
 169:main.c        ****                     {
 477              		.loc 1 169 0 is_stmt 0 discriminator 1
 478 017e 2B4B     		ldr	r3, .L42+28
 479 0180 1B78     		ldrb	r3, [r3]	@ zero_extendqisi2
 480 0182 1F2B     		cmp	r3, #31
 481 0184 ECD9     		bls	.L35
 482 0186 3DE0     		b	.L19
 483              	.L24:
 172:main.c        ****                     }
 173:main.c        ****                 break;
 174:main.c        ****                 case 3: // Store single I16
 175:main.c        ****                     for(i=0;i<Transmit_Packet.packet_size;i++)
 484              		.loc 1 175 0 is_stmt 1
 485 0188 0021     		movs	r1, #0
 486 018a 284A     		ldr	r2, .L42+28
 487 018c 1170     		strb	r1, [r2]
 488 018e 0BE0     		b	.L36
 489              	.L37:
 176:main.c        ****                     {
 177:main.c        ****                             Transmit_Packet.buffer[i+2] = Command_Packet.buffer[i];
 490              		.loc 1 177 0 discriminator 3
 491 0190 901C     		adds	r0, r2, #2
 492 0192 2349     		ldr	r1, .L42+16
 493 0194 1144     		add	r1, r1, r2
 494 0196 8C78     		ldrb	r4, [r1, #2]	@ zero_extendqisi2
 495 0198 2249     		ldr	r1, .L42+20
ARM GAS  C:\Users\GEORGE~1\AppData\Local\Temp\ccgsAhbQ.s 			page 13


 496 019a 0144     		add	r1, r1, r0
 497 019c 8C70     		strb	r4, [r1, #2]
 178:main.c        ****                             TransmitBuffer[i+2] = Transmit_Packet.buffer[i+2];
 498              		.loc 1 178 0 discriminator 3
 499 019e 2249     		ldr	r1, .L42+24
 500 01a0 0C54     		strb	r4, [r1, r0]
 175:main.c        ****                     {
 501              		.loc 1 175 0 discriminator 3
 502 01a2 0132     		adds	r2, r2, #1
 503 01a4 2149     		ldr	r1, .L42+28
 504 01a6 0A70     		strb	r2, [r1]
 505              	.L36:
 175:main.c        ****                     {
 506              		.loc 1 175 0 is_stmt 0 discriminator 1
 507 01a8 204A     		ldr	r2, .L42+28
 508 01aa 1278     		ldrb	r2, [r2]	@ zero_extendqisi2
 509 01ac 9342     		cmp	r3, r2
 510 01ae EFD8     		bhi	.L37
 179:main.c        ****                     }
 180:main.c        ****                     CommandReady = 0;
 511              		.loc 1 180 0 is_stmt 1
 512 01b0 0022     		movs	r2, #0
 513 01b2 1A4B     		ldr	r3, .L42+12
 514 01b4 DA70     		strb	r2, [r3, #3]
 181:main.c        ****                     
 182:main.c        ****                     LEDPeriod = (int16)((Command_Packet.buffer[1] <<8)|(Command_Packet.buffer[1] & 
 515              		.loc 1 182 0
 516 01b6 1A4B     		ldr	r3, .L42+16
 517 01b8 D878     		ldrb	r0, [r3, #3]	@ zero_extendqisi2
 518 01ba 40EA0020 		orr	r0, r0, r0, lsl #8
 519 01be 00B2     		sxth	r0, r0
 520 01c0 1D4B     		ldr	r3, .L42+40
 521 01c2 1880     		strh	r0, [r3]	@ movhi
 183:main.c        ****                     
 184:main.c        ****                     Timer_1_WritePeriod(LEDPeriod);
 522              		.loc 1 184 0
 523 01c4 80B2     		uxth	r0, r0
 524 01c6 FFF7FEFF 		bl	Timer_1_WritePeriod
 525              	.LVL35:
 185:main.c        ****                     
 186:main.c        ****                 break;
 526              		.loc 1 186 0
 527 01ca 1BE0     		b	.L19
 528              	.L25:
 187:main.c        ****                 case 4: // Stop Timer
 188:main.c        ****                     for(i=0;i<Transmit_Packet.packet_size;i++)
 529              		.loc 1 188 0
 530 01cc 0021     		movs	r1, #0
 531 01ce 174A     		ldr	r2, .L42+28
 532 01d0 1170     		strb	r1, [r2]
 533 01d2 0BE0     		b	.L38
 534              	.L39:
 189:main.c        ****                     {
 190:main.c        ****                             Transmit_Packet.buffer[i+2] = Command_Packet.buffer[i];
 535              		.loc 1 190 0 discriminator 3
 536 01d4 901C     		adds	r0, r2, #2
 537 01d6 1249     		ldr	r1, .L42+16
ARM GAS  C:\Users\GEORGE~1\AppData\Local\Temp\ccgsAhbQ.s 			page 14


 538 01d8 1144     		add	r1, r1, r2
 539 01da 8C78     		ldrb	r4, [r1, #2]	@ zero_extendqisi2
 540 01dc 1149     		ldr	r1, .L42+20
 541 01de 0144     		add	r1, r1, r0
 542 01e0 8C70     		strb	r4, [r1, #2]
 191:main.c        ****                             TransmitBuffer[i+2] = Transmit_Packet.buffer[i+2];
 543              		.loc 1 191 0 discriminator 3
 544 01e2 1149     		ldr	r1, .L42+24
 545 01e4 0C54     		strb	r4, [r1, r0]
 188:main.c        ****                     {
 546              		.loc 1 188 0 discriminator 3
 547 01e6 0132     		adds	r2, r2, #1
 548 01e8 1049     		ldr	r1, .L42+28
 549 01ea 0A70     		strb	r2, [r1]
 550              	.L38:
 188:main.c        ****                     {
 551              		.loc 1 188 0 is_stmt 0 discriminator 1
 552 01ec 0F4A     		ldr	r2, .L42+28
 553 01ee 1278     		ldrb	r2, [r2]	@ zero_extendqisi2
 554 01f0 9342     		cmp	r3, r2
 555 01f2 EFD8     		bhi	.L39
 192:main.c        ****                     }
 193:main.c        ****                     CommandReady = 0;
 556              		.loc 1 193 0 is_stmt 1
 557 01f4 0024     		movs	r4, #0
 558 01f6 094B     		ldr	r3, .L42+12
 559 01f8 DC70     		strb	r4, [r3, #3]
 194:main.c        ****                     
 195:main.c        ****                     Timer_1_Stop();
 560              		.loc 1 195 0
 561 01fa FFF7FEFF 		bl	Timer_1_Stop
 562              	.LVL36:
 196:main.c        ****                     TimerReset_Write(0);
 563              		.loc 1 196 0
 564 01fe 2046     		mov	r0, r4
 565 0200 FFF7FEFF 		bl	TimerReset_Write
 566              	.LVL37:
 567              	.L19:
 197:main.c        ****     
 198:main.c        ****                break;
 199:main.c        ****                default:
 200:main.c        ****                 break;
 201:main.c        ****             }
 202:main.c        ****             LabVIEW_UART_PutArray(TransmitBuffer,TransmitBuffer[0]);
 568              		.loc 1 202 0
 569 0204 0848     		ldr	r0, .L42+24
 570 0206 0178     		ldrb	r1, [r0]	@ zero_extendqisi2
 571 0208 FFF7FEFF 		bl	LabVIEW_UART_PutArray
 572              	.LVL38:
 573 020c 26E7     		b	.L18
 574              	.L43:
 575 020e 00BF     		.align	2
 576              	.L42:
 577 0210 00000000 		.word	TimerInterrupt
 578 0214 00000000 		.word	ByteReceived
 579 0218 00000000 		.word	CommandReceived
 580 021c 00000000 		.word	.LANCHOR0
ARM GAS  C:\Users\GEORGE~1\AppData\Local\Temp\ccgsAhbQ.s 			page 15


 581 0220 00000000 		.word	Command_Packet
 582 0224 00000000 		.word	Transmit_Packet
 583 0228 00000000 		.word	TransmitBuffer
 584 022c 00000000 		.word	i
 585 0230 00000000 		.word	DataI32
 586 0234 00000000 		.word	DataU16
 587 0238 00000000 		.word	.LANCHOR1
 588              		.cfi_endproc
 589              	.LFE66:
 590              		.size	main, .-main
 591              		.comm	Transmit_Packet,66,4
 592              		.comm	Command_Packet,66,4
 593              		.comm	DataU16,64,4
 594              		.comm	DataI32,64,4
 595              		.comm	TransmitBuffer,66,4
 596              		.comm	ReceivedBuffer,66,4
 597              		.comm	Status,1,1
 598              		.global	Count
 599              		.global	CommandReady
 600              		.global	firstbyte
 601              		.global	ByteCount
 602              		.global	LEDPeriod
 603              		.global	LEDState
 604              		.comm	i,1,1
 605              		.data
 606              		.align	1
 607              		.set	.LANCHOR1,. + 0
 608              		.type	LEDPeriod, %object
 609              		.size	LEDPeriod, 2
 610              	LEDPeriod:
 611 0000 0100     		.short	1
 612              		.bss
 613              		.set	.LANCHOR0,. + 0
 614              		.type	ByteCount, %object
 615              		.size	ByteCount, 1
 616              	ByteCount:
 617 0000 00       		.space	1
 618              		.type	firstbyte, %object
 619              		.size	firstbyte, 1
 620              	firstbyte:
 621 0001 00       		.space	1
 622              		.type	Count, %object
 623              		.size	Count, 1
 624              	Count:
 625 0002 00       		.space	1
 626              		.type	CommandReady, %object
 627              		.size	CommandReady, 1
 628              	CommandReady:
 629 0003 00       		.space	1
 630              		.type	LEDState, %object
 631              		.size	LEDState, 1
 632              	LEDState:
 633 0004 00       		.space	1
 634              		.text
 635              	.Letext0:
 636              		.file 2 "c:\\program files (x86)\\cypress\\psoc creator\\4.2\\psoc creator\\import\\gnu\\arm\\5.4.
 637              		.file 3 "c:\\program files (x86)\\cypress\\psoc creator\\4.2\\psoc creator\\import\\gnu\\arm\\5.4.
ARM GAS  C:\Users\GEORGE~1\AppData\Local\Temp\ccgsAhbQ.s 			page 16


 638              		.file 4 "Generated_Source\\PSoC5/cytypes.h"
 639              		.file 5 "Generated_Source\\PSoC5/core_cm3.h"
 640              		.file 6 "Generated_Source\\PSoC5/LEDDrive.h"
 641              		.file 7 "Generated_Source\\PSoC5/LabVIEW_UART.h"
 642              		.file 8 "Generated_Source\\PSoC5/ByteCounter.h"
 643              		.file 9 "Generated_Source\\PSoC5/Timer_1.h"
 644              		.file 10 "Generated_Source\\PSoC5/UARTReset.h"
 645              		.file 11 "Generated_Source\\PSoC5/ByteCountReset.h"
 646              		.file 12 "Generated_Source\\PSoC5/TimerReset.h"
 647              		.file 13 "Generated_Source\\PSoC5/TimerInterrupt.h"
 648              		.file 14 "Generated_Source\\PSoC5/ByteReceived.h"
 649              		.file 15 "Generated_Source\\PSoC5/CommandReceived.h"