ARM GAS  C:\Users\shawn\AppData\Local\Temp\ccQTByPl.s 			page 1


   1              		.syntax unified
   2              		.cpu cortex-m3
   3              		.fpu softvfp
   4              		.eabi_attribute 20, 1
   5              		.eabi_attribute 21, 1
   6              		.eabi_attribute 23, 3
   7              		.eabi_attribute 24, 1
   8              		.eabi_attribute 25, 1
   9              		.eabi_attribute 26, 1
  10              		.eabi_attribute 30, 1
  11              		.eabi_attribute 34, 1
  12              		.eabi_attribute 18, 4
  13              		.thumb
  14              		.syntax unified
  15              		.file	"main.c"
  16              		.text
  17              	.Ltext0:
  18              		.cfi_sections	.debug_frame
  19              		.section	.text.ByteReceived,"ax",%progbits
  20              		.align	2
  21              		.global	ByteReceived
  22              		.thumb
  23              		.thumb_func
  24              		.type	ByteReceived, %function
  25              	ByteReceived:
  26              	.LFB63:
  27              		.file 1 "main.c"
   1:main.c        **** /* ========================================
   2:main.c        ****  *
   3:main.c        ****  * Copyright YOUR COMPANY, THE YEAR
   4:main.c        ****  * All Rights Reserved
   5:main.c        ****  * UNPUBLISHED, LICENSED SOFTWARE.
   6:main.c        ****  *
   7:main.c        ****  * CONFIDENTIAL AND PROPRIETARY INFORMATION
   8:main.c        ****  * WHICH IS THE PROPERTY OF your company.
   9:main.c        ****  *
  10:main.c        ****  * ========================================
  11:main.c        **** */
  12:main.c        **** #include "project.h"
  13:main.c        **** 
  14:main.c        **** uint8 ByteCount = 0;
  15:main.c        **** uint8 firstbyte = 0;
  16:main.c        **** uint8 CommandReady = 0;
  17:main.c        **** uint8 Count = 0;
  18:main.c        **** uint8 Status;
  19:main.c        **** 
  20:main.c        **** uint8 ReceivedBuffer[66];
  21:main.c        **** uint8 TransmitBuffer[66];
  22:main.c        **** int32 problem3a_array[16];
  23:main.c        **** uint16 problem3b_array[32];
  24:main.c        **** int16 problem3c_var;
  25:main.c        **** 
  26:main.c        **** struct command_protocol
  27:main.c        **** {
  28:main.c        ****     uint8 packet_size;
  29:main.c        ****     uint8 command;
  30:main.c        ****     uint8 buffer[64];
ARM GAS  C:\Users\shawn\AppData\Local\Temp\ccQTByPl.s 			page 2


  31:main.c        **** } Command_Packet;
  32:main.c        **** 
  33:main.c        **** struct command_protocol Transmit_Packet;
  34:main.c        **** 
  35:main.c        **** CY_ISR(ByteReceived)
  36:main.c        **** { 
  28              		.loc 1 36 0
  29              		.cfi_startproc
  30              		@ args = 0, pretend = 0, frame = 0
  31              		@ frame_needed = 0, uses_anonymous_args = 0
  32 0000 38B5     		push	{r3, r4, r5, lr}
  33              		.cfi_def_cfa_offset 16
  34              		.cfi_offset 3, -16
  35              		.cfi_offset 4, -12
  36              		.cfi_offset 5, -8
  37              		.cfi_offset 14, -4
  37:main.c        ****     LEDDrive_Write(1);
  38              		.loc 1 37 0
  39 0002 0120     		movs	r0, #1
  40 0004 FFF7FEFF 		bl	LEDDrive_Write
  41              	.LVL0:
  38:main.c        ****     ReceivedBuffer[ByteCount++] = (uint8) (LabVIEW_UART_GetByte()&0x00ff);
  42              		.loc 1 38 0
  43 0008 0D4C     		ldr	r4, .L4
  44 000a 2578     		ldrb	r5, [r4]	@ zero_extendqisi2
  45 000c 6B1C     		adds	r3, r5, #1
  46 000e 2370     		strb	r3, [r4]
  47 0010 FFF7FEFF 		bl	LabVIEW_UART_GetByte
  48              	.LVL1:
  49 0014 0B4B     		ldr	r3, .L4+4
  50 0016 5855     		strb	r0, [r3, r5]
  39:main.c        ****     if(firstbyte == 0)
  51              		.loc 1 39 0
  52 0018 6378     		ldrb	r3, [r4, #1]	@ zero_extendqisi2
  53 001a 2BB9     		cbnz	r3, .L2
  40:main.c        ****     {
  41:main.c        ****         ByteCounter_WriteCompare(ReceivedBuffer[0]);
  54              		.loc 1 41 0
  55 001c 094B     		ldr	r3, .L4+4
  56 001e 1878     		ldrb	r0, [r3]	@ zero_extendqisi2
  57 0020 FFF7FEFF 		bl	ByteCounter_WriteCompare
  58              	.LVL2:
  42:main.c        ****         firstbyte = 1;
  59              		.loc 1 42 0
  60 0024 0122     		movs	r2, #1
  61 0026 6270     		strb	r2, [r4, #1]
  62              	.L2:
  43:main.c        ****    
  44:main.c        ****     }
  45:main.c        ****     Count = ByteCounter_ReadCounter();
  63              		.loc 1 45 0
  64 0028 FFF7FEFF 		bl	ByteCounter_ReadCounter
  65              	.LVL3:
  66 002c 044B     		ldr	r3, .L4
  67 002e 9870     		strb	r0, [r3, #2]
  46:main.c        ****     Status = ByteCounter_ReadStatusRegister();
  68              		.loc 1 46 0
ARM GAS  C:\Users\shawn\AppData\Local\Temp\ccQTByPl.s 			page 3


  69 0030 FFF7FEFF 		bl	ByteCounter_ReadStatusRegister
  70              	.LVL4:
  71 0034 044B     		ldr	r3, .L4+8
  72 0036 1870     		strb	r0, [r3]
  47:main.c        ****     LEDDrive_Write(0);
  73              		.loc 1 47 0
  74 0038 0020     		movs	r0, #0
  75 003a FFF7FEFF 		bl	LEDDrive_Write
  76              	.LVL5:
  77 003e 38BD     		pop	{r3, r4, r5, pc}
  78              	.L5:
  79              		.align	2
  80              	.L4:
  81 0040 00000000 		.word	.LANCHOR0
  82 0044 00000000 		.word	ReceivedBuffer
  83 0048 00000000 		.word	Status
  84              		.cfi_endproc
  85              	.LFE63:
  86              		.size	ByteReceived, .-ByteReceived
  87              		.section	.text.CommandReceived,"ax",%progbits
  88              		.align	2
  89              		.global	CommandReceived
  90              		.thumb
  91              		.thumb_func
  92              		.type	CommandReceived, %function
  93              	CommandReceived:
  94              	.LFB64:
  48:main.c        ****     
  49:main.c        **** }
  50:main.c        **** 
  51:main.c        **** CY_ISR(CommandReceived)
  52:main.c        **** {
  95              		.loc 1 52 0
  96              		.cfi_startproc
  97              		@ args = 0, pretend = 0, frame = 0
  98              		@ frame_needed = 0, uses_anonymous_args = 0
  99 0000 08B5     		push	{r3, lr}
 100              		.cfi_def_cfa_offset 8
 101              		.cfi_offset 3, -8
 102              		.cfi_offset 14, -4
  53:main.c        ****     uint8 i;
  54:main.c        ****     
  55:main.c        ****     if(CommandReady == 0)
 103              		.loc 1 55 0
 104 0002 114B     		ldr	r3, .L11
 105 0004 DB78     		ldrb	r3, [r3, #3]	@ zero_extendqisi2
 106 0006 C3B9     		cbnz	r3, .L7
  56:main.c        ****     {
  57:main.c        ****         Command_Packet.packet_size = ReceivedBuffer[0];
 107              		.loc 1 57 0
 108 0008 104A     		ldr	r2, .L11+4
 109 000a 1078     		ldrb	r0, [r2]	@ zero_extendqisi2
 110 000c 104B     		ldr	r3, .L11+8
 111 000e 1870     		strb	r0, [r3]
  58:main.c        ****         Command_Packet.command = ReceivedBuffer[1];
 112              		.loc 1 58 0
 113 0010 5278     		ldrb	r2, [r2, #1]	@ zero_extendqisi2
ARM GAS  C:\Users\shawn\AppData\Local\Temp\ccQTByPl.s 			page 4


 114 0012 5A70     		strb	r2, [r3, #1]
 115              	.LVL6:
  59:main.c        ****     
  60:main.c        ****         for(i=0;i<(Command_Packet.packet_size - 2);i++)
 116              		.loc 1 60 0
 117 0014 0023     		movs	r3, #0
 118 0016 07E0     		b	.L8
 119              	.LVL7:
 120              	.L9:
  61:main.c        ****         {
  62:main.c        ****             Command_Packet.buffer[i] =  ReceivedBuffer[i+2];
 121              		.loc 1 62 0 discriminator 3
 122 0018 9A1C     		adds	r2, r3, #2
 123 001a 0C49     		ldr	r1, .L11+4
 124 001c 895C     		ldrb	r1, [r1, r2]	@ zero_extendqisi2
 125 001e 0C4A     		ldr	r2, .L11+8
 126 0020 1A44     		add	r2, r2, r3
 127 0022 9170     		strb	r1, [r2, #2]
  60:main.c        ****         {
 128              		.loc 1 60 0 discriminator 3
 129 0024 0133     		adds	r3, r3, #1
 130              	.LVL8:
 131 0026 DBB2     		uxtb	r3, r3
 132              	.LVL9:
 133              	.L8:
  60:main.c        ****         {
 134              		.loc 1 60 0 is_stmt 0 discriminator 1
 135 0028 821E     		subs	r2, r0, #2
 136 002a 9342     		cmp	r3, r2
 137 002c F4DB     		blt	.L9
  63:main.c        ****         }
  64:main.c        ****     
  65:main.c        ****         firstbyte = 0;
 138              		.loc 1 65 0 is_stmt 1
 139 002e 064B     		ldr	r3, .L11
 140              	.LVL10:
 141 0030 0022     		movs	r2, #0
 142 0032 5A70     		strb	r2, [r3, #1]
  66:main.c        ****         CommandReady = 1;
 143              		.loc 1 66 0
 144 0034 0121     		movs	r1, #1
 145 0036 D970     		strb	r1, [r3, #3]
  67:main.c        ****         ByteCount = 0;
 146              		.loc 1 67 0
 147 0038 1A70     		strb	r2, [r3]
 148              	.L7:
  68:main.c        ****     }
  69:main.c        ****     ByteCounter_ReadStatusRegister();
 149              		.loc 1 69 0
 150 003a FFF7FEFF 		bl	ByteCounter_ReadStatusRegister
 151              	.LVL11:
  70:main.c        ****     LEDDrive_Write(0);
 152              		.loc 1 70 0
 153 003e 0020     		movs	r0, #0
 154 0040 FFF7FEFF 		bl	LEDDrive_Write
 155              	.LVL12:
 156 0044 08BD     		pop	{r3, pc}
ARM GAS  C:\Users\shawn\AppData\Local\Temp\ccQTByPl.s 			page 5


 157              	.L12:
 158 0046 00BF     		.align	2
 159              	.L11:
 160 0048 00000000 		.word	.LANCHOR0
 161 004c 00000000 		.word	ReceivedBuffer
 162 0050 00000000 		.word	Command_Packet
 163              		.cfi_endproc
 164              	.LFE64:
 165              		.size	CommandReceived, .-CommandReceived
 166              		.section	.text.TimerInterrupt,"ax",%progbits
 167              		.align	2
 168              		.global	TimerInterrupt
 169              		.thumb
 170              		.thumb_func
 171              		.type	TimerInterrupt, %function
 172              	TimerInterrupt:
 173              	.LFB65:
  71:main.c        **** }
  72:main.c        **** 
  73:main.c        **** CY_ISR(TimerInterrupt)
  74:main.c        **** {
 174              		.loc 1 74 0
 175              		.cfi_startproc
 176              		@ args = 0, pretend = 0, frame = 0
 177              		@ frame_needed = 0, uses_anonymous_args = 0
 178 0000 08B5     		push	{r3, lr}
 179              		.cfi_def_cfa_offset 8
 180              		.cfi_offset 3, -8
 181              		.cfi_offset 14, -4
  75:main.c        ****     LEDDrive_Write(!LEDDrive_Read());
 182              		.loc 1 75 0
 183 0002 FFF7FEFF 		bl	LEDDrive_Read
 184              	.LVL13:
 185 0006 B0FA80F0 		clz	r0, r0
 186 000a 4009     		lsrs	r0, r0, #5
 187 000c FFF7FEFF 		bl	LEDDrive_Write
 188              	.LVL14:
  76:main.c        ****     Timer_1_ReadStatusRegister();
 189              		.loc 1 76 0
 190 0010 FFF7FEFF 		bl	Timer_1_ReadStatusRegister
 191              	.LVL15:
 192 0014 08BD     		pop	{r3, pc}
 193              		.cfi_endproc
 194              	.LFE65:
 195              		.size	TimerInterrupt, .-TimerInterrupt
 196 0016 00BF     		.section	.text.main,"ax",%progbits
 197              		.align	2
 198              		.global	main
 199              		.thumb
 200              		.thumb_func
 201              		.type	main, %function
 202              	main:
 203              	.LFB66:
  77:main.c        **** }
  78:main.c        **** 
  79:main.c        **** int main(void)
  80:main.c        **** {
ARM GAS  C:\Users\shawn\AppData\Local\Temp\ccQTByPl.s 			page 6


 204              		.loc 1 80 0
 205              		.cfi_startproc
 206              		@ args = 0, pretend = 0, frame = 0
 207              		@ frame_needed = 0, uses_anonymous_args = 0
 208 0000 10B5     		push	{r4, lr}
 209              		.cfi_def_cfa_offset 8
 210              		.cfi_offset 4, -8
 211              		.cfi_offset 14, -4
  81:main.c        ****     uint8 i;
  82:main.c        ****     
  83:main.c        ****     UARTReset_Write(0);
 212              		.loc 1 83 0
 213 0002 0020     		movs	r0, #0
 214 0004 FFF7FEFF 		bl	UARTReset_Write
 215              	.LVL16:
  84:main.c        ****     ByteCountReset_Write(0);
 216              		.loc 1 84 0
 217 0008 0020     		movs	r0, #0
 218 000a FFF7FEFF 		bl	ByteCountReset_Write
 219              	.LVL17:
  85:main.c        ****     
  86:main.c        ****     LabVIEW_UART_Start();
 220              		.loc 1 86 0
 221 000e FFF7FEFF 		bl	LabVIEW_UART_Start
 222              	.LVL18:
  87:main.c        ****     
  88:main.c        ****     
  89:main.c        ****     ByteCounter_Start();
 223              		.loc 1 89 0
 224 0012 FFF7FEFF 		bl	ByteCounter_Start
 225              	.LVL19:
  90:main.c        ****     ByteCounter_Enable();
 226              		.loc 1 90 0
 227 0016 FFF7FEFF 		bl	ByteCounter_Enable
 228              	.LVL20:
  91:main.c        ****     ByteCounter_SetInterruptMode(ByteCounter_STATUS_CMP_INT_EN_MASK);
 229              		.loc 1 91 0
 230 001a 0120     		movs	r0, #1
 231 001c FFF7FEFF 		bl	ByteCounter_SetInterruptMode
 232              	.LVL21:
  92:main.c        ****        
  93:main.c        ****     ByteReceived_Start();
 233              		.loc 1 93 0
 234 0020 FFF7FEFF 		bl	ByteReceived_Start
 235              	.LVL22:
  94:main.c        ****     ByteReceived_StartEx(ByteReceived);
 236              		.loc 1 94 0
 237 0024 4048     		ldr	r0, .L33
 238 0026 FFF7FEFF 		bl	ByteReceived_StartEx
 239              	.LVL23:
  95:main.c        ****     ByteReceived_Enable();
 240              		.loc 1 95 0
 241 002a FFF7FEFF 		bl	ByteReceived_Enable
 242              	.LVL24:
  96:main.c        ****     
  97:main.c        ****     CommandReceived_Start();
 243              		.loc 1 97 0
ARM GAS  C:\Users\shawn\AppData\Local\Temp\ccQTByPl.s 			page 7


 244 002e FFF7FEFF 		bl	CommandReceived_Start
 245              	.LVL25:
  98:main.c        ****     CommandReceived_StartEx(CommandReceived);
 246              		.loc 1 98 0
 247 0032 3E48     		ldr	r0, .L33+4
 248 0034 FFF7FEFF 		bl	CommandReceived_StartEx
 249              	.LVL26:
  99:main.c        ****     CommandReceived_Enable();
 250              		.loc 1 99 0
 251 0038 FFF7FEFF 		bl	CommandReceived_Enable
 252              	.LVL27:
 100:main.c        ****     
 101:main.c        ****     Timer_1_Start();
 253              		.loc 1 101 0
 254 003c FFF7FEFF 		bl	Timer_1_Start
 255              	.LVL28:
 102:main.c        ****     TimerInterrupt_Start();
 256              		.loc 1 102 0
 257 0040 FFF7FEFF 		bl	TimerInterrupt_Start
 258              	.LVL29:
 103:main.c        ****     TimerInterrupt_StartEx(TimerInterrupt);
 259              		.loc 1 103 0
 260 0044 3A48     		ldr	r0, .L33+8
 261 0046 FFF7FEFF 		bl	TimerInterrupt_StartEx
 262              	.LVL30:
 104:main.c        ****     TimerInterrupt_Enable();
 263              		.loc 1 104 0
 264 004a FFF7FEFF 		bl	TimerInterrupt_Enable
 265              	.LVL31:
 105:main.c        ****     // Default period is fast for testing
 106:main.c        ****     int16 period = 5000;
 107:main.c        ****     Timer_1_WritePeriod(period);
 266              		.loc 1 107 0
 267 004e 41F28830 		movw	r0, #5000
 268 0052 FFF7FEFF 		bl	Timer_1_WritePeriod
 269              	.LVL32:
 108:main.c        ****     
 109:main.c        ****     CyGlobalIntEnable; /* Enable global interrupts. */
 270              		.loc 1 109 0
 271              		.syntax unified
 272              	@ 109 "main.c" 1
 273 0056 62B6     		CPSIE   i
 274              	@ 0 "" 2
 275              		.thumb
 276              		.syntax unified
 277              	.L16:
 110:main.c        **** 
 111:main.c        ****     /* Place your initialization/startup code here (e.g. MyInst_Start()) */
 112:main.c        **** 
 113:main.c        ****     //LabVIEW_UART_PutString("PSOC Started\r\n");
 114:main.c        ****     
 115:main.c        ****     for(;;)
 116:main.c        ****     {
 117:main.c        ****         /* Place your application code here. */
 118:main.c        ****         
 119:main.c        ****         if(CommandReady)
 278              		.loc 1 119 0
ARM GAS  C:\Users\shawn\AppData\Local\Temp\ccQTByPl.s 			page 8


 279 0058 364B     		ldr	r3, .L33+12
 280 005a DB78     		ldrb	r3, [r3, #3]	@ zero_extendqisi2
 281 005c 002B     		cmp	r3, #0
 282 005e FBD0     		beq	.L16
 120:main.c        ****         {
 121:main.c        ****             switch(Command_Packet.command)
 283              		.loc 1 121 0
 284 0060 354B     		ldr	r3, .L33+16
 285 0062 5A78     		ldrb	r2, [r3, #1]	@ zero_extendqisi2
 286 0064 531E     		subs	r3, r2, #1
 287 0066 042B     		cmp	r3, #4
 288 0068 57D8     		bhi	.L17
 289 006a DFE803F0 		tbb	[pc, r3]
 290              	.L19:
 291 006e 29       		.byte	(.L29-.L19)/2
 292 006f 3B       		.byte	(.L30-.L19)/2
 293 0070 4C       		.byte	(.L31-.L19)/2
 294 0071 56       		.byte	(.L17-.L19)/2
 295 0072 03       		.byte	(.L22-.L19)/2
 296 0073 00       		.p2align 1
 297              	.L22:
 122:main.c        ****             {
 123:main.c        ****                 case 5:
 124:main.c        ****                     Transmit_Packet.command = Command_Packet.command;
 298              		.loc 1 124 0
 299 0074 3149     		ldr	r1, .L33+20
 300 0076 4A70     		strb	r2, [r1, #1]
 125:main.c        ****                     TransmitBuffer[1] = Transmit_Packet.command;
 301              		.loc 1 125 0
 302 0078 314B     		ldr	r3, .L33+24
 303 007a 5A70     		strb	r2, [r3, #1]
 126:main.c        ****                     Transmit_Packet.packet_size = Command_Packet.packet_size;
 304              		.loc 1 126 0
 305 007c 2E4A     		ldr	r2, .L33+16
 306 007e 1478     		ldrb	r4, [r2]	@ zero_extendqisi2
 307 0080 0C70     		strb	r4, [r1]
 127:main.c        ****                     TransmitBuffer[0] = Transmit_Packet.packet_size;
 308              		.loc 1 127 0
 309 0082 1C70     		strb	r4, [r3]
 310              	.LVL33:
 128:main.c        ****                     for(i=0;i<Transmit_Packet.packet_size;i++)
 311              		.loc 1 128 0
 312 0084 0023     		movs	r3, #0
 313 0086 0AE0     		b	.L23
 314              	.LVL34:
 315              	.L24:
 129:main.c        ****                     {
 130:main.c        ****                             Transmit_Packet.buffer[i+2] = Command_Packet.buffer[i];
 316              		.loc 1 130 0 discriminator 3
 317 0088 991C     		adds	r1, r3, #2
 318 008a 2B4A     		ldr	r2, .L33+16
 319 008c 1A44     		add	r2, r2, r3
 320 008e 9078     		ldrb	r0, [r2, #2]	@ zero_extendqisi2
 321 0090 2A4A     		ldr	r2, .L33+20
 322 0092 0A44     		add	r2, r2, r1
 323 0094 9070     		strb	r0, [r2, #2]
 131:main.c        ****                             TransmitBuffer[i+2] = Transmit_Packet.buffer[i+2];
ARM GAS  C:\Users\shawn\AppData\Local\Temp\ccQTByPl.s 			page 9


 324              		.loc 1 131 0 discriminator 3
 325 0096 2A4A     		ldr	r2, .L33+24
 326 0098 5054     		strb	r0, [r2, r1]
 128:main.c        ****                     for(i=0;i<Transmit_Packet.packet_size;i++)
 327              		.loc 1 128 0 discriminator 3
 328 009a 0133     		adds	r3, r3, #1
 329              	.LVL35:
 330 009c DBB2     		uxtb	r3, r3
 331              	.LVL36:
 332              	.L23:
 128:main.c        ****                     for(i=0;i<Transmit_Packet.packet_size;i++)
 333              		.loc 1 128 0 is_stmt 0 discriminator 1
 334 009e A342     		cmp	r3, r4
 335 00a0 F2D3     		bcc	.L24
 132:main.c        ****                     }
 133:main.c        ****                     CommandReady = 0;
 336              		.loc 1 133 0 is_stmt 1
 337 00a2 0022     		movs	r2, #0
 338 00a4 234B     		ldr	r3, .L33+12
 339              	.LVL37:
 340 00a6 DA70     		strb	r2, [r3, #3]
 134:main.c        ****                 break;
 341              		.loc 1 134 0
 342 00a8 37E0     		b	.L17
 343              	.LVL38:
 344              	.L25:
 345              	.LBB2:
 135:main.c        ****                 
 136:main.c        ****                 case 1:
 137:main.c        ****                     for (i=0;i<Command_Packet.packet_size/4;++i)
 138:main.c        ****                     {
 139:main.c        ****                         /*
 140:main.c        ****                         Have pointer of type int32 point to head of 4 byte sequence
 141:main.c        ****                         in the command packet buffer representing that int32 number.
 142:main.c        ****                         Then dereference pointer to place int32 value in new array.
 143:main.c        ****                         */
 144:main.c        ****                         
 145:main.c        ****                         //Array decays to pointer itself, no need for '&'
 146:main.c        ****                         int32 *ptr = Command_Packet.buffer[4*i]; 
 346              		.loc 1 146 0 discriminator 3
 347 00aa 234A     		ldr	r2, .L33+16
 348 00ac 02EB8302 		add	r2, r2, r3, lsl #2
 349 00b0 9278     		ldrb	r2, [r2, #2]	@ zero_extendqisi2
 350              	.LVL39:
 147:main.c        ****                         problem3a_array[i] = *ptr;                        
 351              		.loc 1 147 0 discriminator 3
 352 00b2 1168     		ldr	r1, [r2]
 353 00b4 234A     		ldr	r2, .L33+28
 354              	.LVL40:
 355 00b6 42F82310 		str	r1, [r2, r3, lsl #2]
 356              	.LBE2:
 137:main.c        ****                     {
 357              		.loc 1 137 0 discriminator 3
 358 00ba 0133     		adds	r3, r3, #1
 359              	.LVL41:
 360 00bc DBB2     		uxtb	r3, r3
 361              	.LVL42:
ARM GAS  C:\Users\shawn\AppData\Local\Temp\ccQTByPl.s 			page 10


 362 00be 00E0     		b	.L18
 363              	.LVL43:
 364              	.L29:
 121:main.c        ****             {
 365              		.loc 1 121 0
 366 00c0 0023     		movs	r3, #0
 367              	.L18:
 368              	.LVL44:
 137:main.c        ****                     {
 369              		.loc 1 137 0 discriminator 1
 370 00c2 1D4A     		ldr	r2, .L33+16
 371 00c4 1278     		ldrb	r2, [r2]	@ zero_extendqisi2
 372 00c6 B3EB920F 		cmp	r3, r2, lsr #2
 373 00ca EED3     		bcc	.L25
 374 00cc 25E0     		b	.L17
 375              	.L26:
 376              	.LBB3:
 148:main.c        ****                     }
 149:main.c        ****                     break;
 150:main.c        ****                 
 151:main.c        ****                 case 2:
 152:main.c        ****                     for (i=0;i<Command_Packet.packet_size/2;++i)
 153:main.c        ****                     {
 154:main.c        ****                         /*
 155:main.c        ****                         Have pointer of type uint16 point to head of 2 byte sequence
 156:main.c        ****                         in the command packet buffer representing that uint16 number.
 157:main.c        ****                         Then dereference pointer to place uint16 value in new array.
 158:main.c        ****                         */
 159:main.c        ****                         
 160:main.c        ****                         //Array decays to pointer itself, no need for '&'
 161:main.c        ****                         uint16 *ptr = Command_Packet.buffer[2*i]; 
 377              		.loc 1 161 0 discriminator 3
 378 00ce 1A4A     		ldr	r2, .L33+16
 379 00d0 02EB4302 		add	r2, r2, r3, lsl #1
 380 00d4 9278     		ldrb	r2, [r2, #2]	@ zero_extendqisi2
 381              	.LVL45:
 162:main.c        ****                         problem3b_array[i] = *ptr;
 382              		.loc 1 162 0 discriminator 3
 383 00d6 1188     		ldrh	r1, [r2]
 384 00d8 1B4A     		ldr	r2, .L33+32
 385              	.LVL46:
 386 00da 22F81310 		strh	r1, [r2, r3, lsl #1]	@ movhi
 387              	.LBE3:
 152:main.c        ****                     {
 388              		.loc 1 152 0 discriminator 3
 389 00de 0133     		adds	r3, r3, #1
 390              	.LVL47:
 391 00e0 DBB2     		uxtb	r3, r3
 392              	.LVL48:
 393 00e2 00E0     		b	.L20
 394              	.LVL49:
 395              	.L30:
 121:main.c        ****             {
 396              		.loc 1 121 0
 397 00e4 0023     		movs	r3, #0
 398              	.L20:
 399              	.LVL50:
ARM GAS  C:\Users\shawn\AppData\Local\Temp\ccQTByPl.s 			page 11


 152:main.c        ****                     {
 400              		.loc 1 152 0 discriminator 1
 401 00e6 144A     		ldr	r2, .L33+16
 402 00e8 1278     		ldrb	r2, [r2]	@ zero_extendqisi2
 403 00ea B3EB520F 		cmp	r3, r2, lsr #1
 404 00ee EED3     		bcc	.L26
 405 00f0 13E0     		b	.L17
 406              	.L27:
 407              	.LBB4:
 163:main.c        ****                     }
 164:main.c        ****                     break;
 165:main.c        ****                      
 166:main.c        ****                 case 3:
 167:main.c        ****                     
 168:main.c        ****                     for (i=0;i<Command_Packet.packet_size/2;++i)
 169:main.c        ****                     {   
 170:main.c        ****                         /*
 171:main.c        ****                         Have pointer of type int16 point to head of 2 byte sequence
 172:main.c        ****                         in the command packet buffer representing that int16 number.
 173:main.c        ****                         Then dereference pointer to place int16 value in new variable.
 174:main.c        ****                         That int16 variable then updates the timer interrupt period
 175:main.c        ****                         that toggles the LED light flashing.
 176:main.c        ****                         */
 177:main.c        ****                         
 178:main.c        ****                         //Array decays to pointer itself, no need for '&'
 179:main.c        ****                         int16 *ptr = Command_Packet.buffer[i];
 408              		.loc 1 179 0 discriminator 3
 409 00f2 114A     		ldr	r2, .L33+16
 410 00f4 1A44     		add	r2, r2, r3
 411 00f6 9278     		ldrb	r2, [r2, #2]	@ zero_extendqisi2
 412              	.LVL51:
 180:main.c        ****                         problem3c_var = *ptr;
 413              		.loc 1 180 0 discriminator 3
 414 00f8 B2F90010 		ldrsh	r1, [r2]
 415 00fc 134A     		ldr	r2, .L33+36
 416              	.LVL52:
 417 00fe 1180     		strh	r1, [r2]	@ movhi
 418              	.LBE4:
 168:main.c        ****                     {   
 419              		.loc 1 168 0 discriminator 3
 420 0100 0133     		adds	r3, r3, #1
 421              	.LVL53:
 422 0102 DBB2     		uxtb	r3, r3
 423              	.LVL54:
 424 0104 00E0     		b	.L21
 425              	.LVL55:
 426              	.L31:
 121:main.c        ****             {
 427              		.loc 1 121 0
 428 0106 0023     		movs	r3, #0
 429              	.L21:
 430              	.LVL56:
 168:main.c        ****                     {   
 431              		.loc 1 168 0 discriminator 1
 432 0108 0B4A     		ldr	r2, .L33+16
 433 010a 1278     		ldrb	r2, [r2]	@ zero_extendqisi2
 434 010c B3EB520F 		cmp	r3, r2, lsr #1
ARM GAS  C:\Users\shawn\AppData\Local\Temp\ccQTByPl.s 			page 12


 435 0110 EFD3     		bcc	.L27
 181:main.c        ****                     }
 182:main.c        ****                       
 183:main.c        ****                     Timer_1_WritePeriod(problem3c_var);
 436              		.loc 1 183 0
 437 0112 0E4B     		ldr	r3, .L33+36
 438              	.LVL57:
 439 0114 1888     		ldrh	r0, [r3]
 440 0116 FFF7FEFF 		bl	Timer_1_WritePeriod
 441              	.LVL58:
 442              	.L17:
 184:main.c        ****                     break;
 185:main.c        ****                     
 186:main.c        ****                 default:
 187:main.c        ****                 break;
 188:main.c        ****             }
 189:main.c        ****             LabVIEW_UART_PutArray(TransmitBuffer,Transmit_Packet.packet_size);
 443              		.loc 1 189 0
 444 011a 084B     		ldr	r3, .L33+20
 445 011c 1978     		ldrb	r1, [r3]	@ zero_extendqisi2
 446 011e 0848     		ldr	r0, .L33+24
 447 0120 FFF7FEFF 		bl	LabVIEW_UART_PutArray
 448              	.LVL59:
 449 0124 98E7     		b	.L16
 450              	.L34:
 451 0126 00BF     		.align	2
 452              	.L33:
 453 0128 00000000 		.word	ByteReceived
 454 012c 00000000 		.word	CommandReceived
 455 0130 00000000 		.word	TimerInterrupt
 456 0134 00000000 		.word	.LANCHOR0
 457 0138 00000000 		.word	Command_Packet
 458 013c 00000000 		.word	Transmit_Packet
 459 0140 00000000 		.word	TransmitBuffer
 460 0144 00000000 		.word	problem3a_array
 461 0148 00000000 		.word	problem3b_array
 462 014c 00000000 		.word	problem3c_var
 463              		.cfi_endproc
 464              	.LFE66:
 465              		.size	main, .-main
 466              		.comm	Transmit_Packet,66,4
 467              		.comm	Command_Packet,66,4
 468              		.comm	problem3c_var,2,2
 469              		.comm	problem3b_array,64,4
 470              		.comm	problem3a_array,64,4
 471              		.comm	TransmitBuffer,66,4
 472              		.comm	ReceivedBuffer,66,4
 473              		.comm	Status,1,1
 474              		.global	Count
 475              		.global	CommandReady
 476              		.global	firstbyte
 477              		.global	ByteCount
 478              		.bss
 479              		.set	.LANCHOR0,. + 0
 480              		.type	ByteCount, %object
 481              		.size	ByteCount, 1
 482              	ByteCount:
ARM GAS  C:\Users\shawn\AppData\Local\Temp\ccQTByPl.s 			page 13


 483 0000 00       		.space	1
 484              		.type	firstbyte, %object
 485              		.size	firstbyte, 1
 486              	firstbyte:
 487 0001 00       		.space	1
 488              		.type	Count, %object
 489              		.size	Count, 1
 490              	Count:
 491 0002 00       		.space	1
 492              		.type	CommandReady, %object
 493              		.size	CommandReady, 1
 494              	CommandReady:
 495 0003 00       		.space	1
 496              		.text
 497              	.Letext0:
 498              		.file 2 "c:\\program files (x86)\\cypress\\psoc creator\\4.2\\psoc creator\\import\\gnu\\arm\\5.4.
 499              		.file 3 "c:\\program files (x86)\\cypress\\psoc creator\\4.2\\psoc creator\\import\\gnu\\arm\\5.4.
 500              		.file 4 "Generated_Source\\PSoC5/cytypes.h"
 501              		.file 5 "Generated_Source\\PSoC5/core_cm3.h"
 502              		.file 6 "Generated_Source\\PSoC5/LEDDrive.h"
 503              		.file 7 "Generated_Source\\PSoC5/LabVIEW_UART.h"
 504              		.file 8 "Generated_Source\\PSoC5/ByteCounter.h"
 505              		.file 9 "Generated_Source\\PSoC5/Timer_1.h"
 506              		.file 10 "Generated_Source\\PSoC5/UARTReset.h"
 507              		.file 11 "Generated_Source\\PSoC5/ByteCountReset.h"
 508              		.file 12 "Generated_Source\\PSoC5/ByteReceived.h"
 509              		.file 13 "Generated_Source\\PSoC5/CommandReceived.h"
 510              		.file 14 "Generated_Source\\PSoC5/TimerInterrupt.h"