ARM GAS  C:\Users\GEORGE~1\AppData\Local\Temp\ccRQeNi1.s 			page 1


   1              		.syntax unified
   2              		.cpu cortex-m3
   3              		.fpu softvfp
   4              		.eabi_attribute 20, 1
   5              		.eabi_attribute 21, 1
   6              		.eabi_attribute 23, 3
   7              		.eabi_attribute 24, 1
   8              		.eabi_attribute 25, 1
   9              		.eabi_attribute 26, 1
  10              		.eabi_attribute 30, 1
  11              		.eabi_attribute 34, 1
  12              		.eabi_attribute 18, 4
  13              		.thumb
  14              		.syntax unified
  15              		.file	"main.c"
  16              		.text
  17              	.Ltext0:
  18              		.cfi_sections	.debug_frame
  19              		.section	.text.TimerInterrupt,"ax",%progbits
  20              		.align	2
  21              		.global	TimerInterrupt
  22              		.thumb
  23              		.thumb_func
  24              		.type	TimerInterrupt, %function
  25              	TimerInterrupt:
  26              	.LFB63:
  27              		.file 1 "main.c"
   1:main.c        **** /* ========================================
   2:main.c        ****  *
   3:main.c        ****  * Copyright YOUR COMPANY, THE YEAR
   4:main.c        ****  * All Rights Reserved
   5:main.c        ****  * UNPUBLISHED, LICENSED SOFTWARE.
   6:main.c        ****  *
   7:main.c        ****  * CONFIDENTIAL AND PROPRIETARY INFORMATION
   8:main.c        ****  * WHICH IS THE PROPERTY OF your company.
   9:main.c        ****  *
  10:main.c        ****  * ========================================
  11:main.c        **** */
  12:main.c        **** #include "project.h"
  13:main.c        **** 
  14:main.c        **** CY_ISR(TimerInterrupt)
  15:main.c        **** {
  28              		.loc 1 15 0
  29              		.cfi_startproc
  30              		@ args = 0, pretend = 0, frame = 0
  31              		@ frame_needed = 0, uses_anonymous_args = 0
  32 0000 08B5     		push	{r3, lr}
  33              		.cfi_def_cfa_offset 8
  34              		.cfi_offset 3, -8
  35              		.cfi_offset 14, -4
  16:main.c        ****     LEDDrive_Write(!LEDDrive_Read());
  36              		.loc 1 16 0
  37 0002 FFF7FEFF 		bl	LEDDrive_Read
  38              	.LVL0:
  39 0006 B0FA80F0 		clz	r0, r0
  40 000a 4009     		lsrs	r0, r0, #5
  41 000c FFF7FEFF 		bl	LEDDrive_Write
ARM GAS  C:\Users\GEORGE~1\AppData\Local\Temp\ccRQeNi1.s 			page 2


  42              	.LVL1:
  17:main.c        ****     
  18:main.c        ****     Timer_1_ReadStatusRegister();
  43              		.loc 1 18 0
  44 0010 FFF7FEFF 		bl	Timer_1_ReadStatusRegister
  45              	.LVL2:
  46 0014 08BD     		pop	{r3, pc}
  47              		.cfi_endproc
  48              	.LFE63:
  49              		.size	TimerInterrupt, .-TimerInterrupt
  50 0016 00BF     		.section	.text.main,"ax",%progbits
  51              		.align	2
  52              		.global	main
  53              		.thumb
  54              		.thumb_func
  55              		.type	main, %function
  56              	main:
  57              	.LFB64:
  19:main.c        **** }
  20:main.c        **** 
  21:main.c        **** int main(void)
  22:main.c        **** {
  58              		.loc 1 22 0
  59              		.cfi_startproc
  60              		@ Volatile: function does not return.
  61              		@ args = 0, pretend = 0, frame = 0
  62              		@ frame_needed = 0, uses_anonymous_args = 0
  63 0000 08B5     		push	{r3, lr}
  64              		.cfi_def_cfa_offset 8
  65              		.cfi_offset 3, -8
  66              		.cfi_offset 14, -4
  23:main.c        ****     Timer_1_Start();
  67              		.loc 1 23 0
  68 0002 FFF7FEFF 		bl	Timer_1_Start
  69              	.LVL3:
  24:main.c        ****     
  25:main.c        ****     TimerInterrupt_Start();
  70              		.loc 1 25 0
  71 0006 FFF7FEFF 		bl	TimerInterrupt_Start
  72              	.LVL4:
  26:main.c        ****     TimerInterrupt_StartEx(TimerInterrupt);
  73              		.loc 1 26 0
  74 000a 0448     		ldr	r0, .L6
  75 000c FFF7FEFF 		bl	TimerInterrupt_StartEx
  76              	.LVL5:
  27:main.c        ****     
  28:main.c        ****     
  29:main.c        ****     Timer_1_WritePeriod(12000);
  77              		.loc 1 29 0
  78 0010 42F6E060 		movw	r0, #12000
  79 0014 FFF7FEFF 		bl	Timer_1_WritePeriod
  80              	.LVL6:
  30:main.c        ****     
  31:main.c        ****     CyGlobalIntEnable; /* Enable global interrupts. */
  81              		.loc 1 31 0
  82              		.syntax unified
  83              	@ 31 "main.c" 1
ARM GAS  C:\Users\GEORGE~1\AppData\Local\Temp\ccRQeNi1.s 			page 3


  84 0018 62B6     		CPSIE   i
  85              	@ 0 "" 2
  86              		.thumb
  87              		.syntax unified
  88              	.L4:
  89 001a FEE7     		b	.L4
  90              	.L7:
  91              		.align	2
  92              	.L6:
  93 001c 00000000 		.word	TimerInterrupt
  94              		.cfi_endproc
  95              	.LFE64:
  96              		.size	main, .-main
  97              		.text
  98              	.Letext0:
  99              		.file 2 "c:\\program files (x86)\\cypress\\psoc creator\\4.2\\psoc creator\\import\\gnu\\arm\\5.4.
 100              		.file 3 "c:\\program files (x86)\\cypress\\psoc creator\\4.2\\psoc creator\\import\\gnu\\arm\\5.4.
 101              		.file 4 "Generated_Source\\PSoC5/LEDDrive.h"
 102              		.file 5 "Generated_Source\\PSoC5/Timer_1.h"
 103              		.file 6 "Generated_Source\\PSoC5/TimerInterrupt.h"
 104              		.file 7 "Generated_Source\\PSoC5/core_cm3.h"