ARM GAS  C:\Users\GEORGE~1\AppData\Local\Temp\ccyt0Bew.s 			page 1


   1              		.syntax unified
   2              		.cpu cortex-m3
   3              		.fpu softvfp
   4              		.eabi_attribute 20, 1
   5              		.eabi_attribute 21, 1
   6              		.eabi_attribute 23, 3
   7              		.eabi_attribute 24, 1
   8              		.eabi_attribute 25, 1
   9              		.eabi_attribute 26, 1
  10              		.eabi_attribute 30, 1
  11              		.eabi_attribute 34, 1
  12              		.eabi_attribute 18, 4
  13              		.thumb
  14              		.syntax unified
  15              		.file	"main.c"
  16              		.text
  17              	.Ltext0:
  18              		.cfi_sections	.debug_frame
  19              		.section	.text.WaveDone,"ax",%progbits
  20              		.align	2
  21              		.global	WaveDone
  22              		.thumb
  23              		.thumb_func
  24              		.type	WaveDone, %function
  25              	WaveDone:
  26              	.LFB63:
  27              		.file 1 "main.c"
   1:main.c        **** /* ========================================
   2:main.c        ****  *
   3:main.c        ****  * Copyright YOUR COMPANY, THE YEAR
   4:main.c        ****  * All Rights Reserved
   5:main.c        ****  * UNPUBLISHED, LICENSED SOFTWARE.
   6:main.c        ****  *
   7:main.c        ****  * CONFIDENTIAL AND PROPRIETARY INFORMATION
   8:main.c        ****  * WHICH IS THE PROPERTY OF your company.
   9:main.c        ****  *
  10:main.c        ****  * ========================================
  11:main.c        **** */
  12:main.c        **** #include "project.h"
  13:main.c        **** 
  14:main.c        **** uint8 Output[1024];
  15:main.c        **** 
  16:main.c        **** uint16 DataReady = 0;
  17:main.c        **** 
  18:main.c        **** uint8 Ch;
  19:main.c        **** 
  20:main.c        **** uint16 i;
  21:main.c        **** 
  22:main.c        **** CY_ISR(WaveDone)
  23:main.c        **** {
  28              		.loc 1 23 0
  29              		.cfi_startproc
  30              		@ args = 0, pretend = 0, frame = 0
  31              		@ frame_needed = 0, uses_anonymous_args = 0
  32 0000 08B5     		push	{r3, lr}
  33              		.cfi_def_cfa_offset 8
  34              		.cfi_offset 3, -8
ARM GAS  C:\Users\GEORGE~1\AppData\Local\Temp\ccyt0Bew.s 			page 2


  35              		.cfi_offset 14, -4
  24:main.c        ****     Marker1Drive_Write(1);
  36              		.loc 1 24 0
  37 0002 0120     		movs	r0, #1
  38 0004 FFF7FEFF 		bl	Marker1Drive_Write
  39              	.LVL0:
  25:main.c        ****     i=0;
  40              		.loc 1 25 0
  41 0008 0020     		movs	r0, #0
  42 000a 044B     		ldr	r3, .L3
  43 000c 1880     		strh	r0, [r3]	@ movhi
  26:main.c        ****     DataReady = 1;
  44              		.loc 1 26 0
  45 000e 0122     		movs	r2, #1
  46 0010 034B     		ldr	r3, .L3+4
  47 0012 1A80     		strh	r2, [r3]	@ movhi
  27:main.c        ****     Marker1Drive_Write(0);
  48              		.loc 1 27 0
  49 0014 FFF7FEFF 		bl	Marker1Drive_Write
  50              	.LVL1:
  51 0018 08BD     		pop	{r3, pc}
  52              	.L4:
  53 001a 00BF     		.align	2
  54              	.L3:
  55 001c 00000000 		.word	i
  56 0020 00000000 		.word	.LANCHOR0
  57              		.cfi_endproc
  58              	.LFE63:
  59              		.size	WaveDone, .-WaveDone
  60              		.section	.text.ADCInterrupt,"ax",%progbits
  61              		.align	2
  62              		.global	ADCInterrupt
  63              		.thumb
  64              		.thumb_func
  65              		.type	ADCInterrupt, %function
  66              	ADCInterrupt:
  67              	.LFB64:
  28:main.c        **** }
  29:main.c        **** 
  30:main.c        **** CY_ISR(ADCInterrupt)
  31:main.c        **** {
  68              		.loc 1 31 0
  69              		.cfi_startproc
  70              		@ args = 0, pretend = 0, frame = 0
  71              		@ frame_needed = 0, uses_anonymous_args = 0
  72 0000 38B5     		push	{r3, r4, r5, lr}
  73              		.cfi_def_cfa_offset 16
  74              		.cfi_offset 3, -16
  75              		.cfi_offset 4, -12
  76              		.cfi_offset 5, -8
  77              		.cfi_offset 14, -4
  32:main.c        ****     if(DataReady == 0)
  78              		.loc 1 32 0
  79 0002 074B     		ldr	r3, .L8
  80 0004 1B88     		ldrh	r3, [r3]
  81 0006 53B9     		cbnz	r3, .L5
  33:main.c        ****     {
ARM GAS  C:\Users\GEORGE~1\AppData\Local\Temp\ccyt0Bew.s 			page 3


  34:main.c        ****     Output[i] = ADC_DelSig_1_GetResult8();
  82              		.loc 1 34 0
  83 0008 064C     		ldr	r4, .L8+4
  84 000a 2588     		ldrh	r5, [r4]
  85 000c FFF7FEFF 		bl	ADC_DelSig_1_GetResult8
  86              	.LVL2:
  87 0010 054B     		ldr	r3, .L8+8
  88 0012 5855     		strb	r0, [r3, r5]
  35:main.c        ****     i=(i+1)&0x03FF;
  89              		.loc 1 35 0
  90 0014 2388     		ldrh	r3, [r4]
  91 0016 0133     		adds	r3, r3, #1
  92 0018 C3F30903 		ubfx	r3, r3, #0, #10
  93 001c 2380     		strh	r3, [r4]	@ movhi
  94              	.L5:
  95 001e 38BD     		pop	{r3, r4, r5, pc}
  96              	.L9:
  97              		.align	2
  98              	.L8:
  99 0020 00000000 		.word	.LANCHOR0
 100 0024 00000000 		.word	i
 101 0028 00000000 		.word	Output
 102              		.cfi_endproc
 103              	.LFE64:
 104              		.size	ADCInterrupt, .-ADCInterrupt
 105              		.section	.text.main,"ax",%progbits
 106              		.align	2
 107              		.global	main
 108              		.thumb
 109              		.thumb_func
 110              		.type	main, %function
 111              	main:
 112              	.LFB65:
  36:main.c        ****     }
  37:main.c        ****  }
  38:main.c        **** 
  39:main.c        **** int main(void)
  40:main.c        **** {
 113              		.loc 1 40 0
 114              		.cfi_startproc
 115              		@ Volatile: function does not return.
 116              		@ args = 0, pretend = 0, frame = 0
 117              		@ frame_needed = 0, uses_anonymous_args = 0
 118 0000 08B5     		push	{r3, lr}
 119              		.cfi_def_cfa_offset 8
 120              		.cfi_offset 3, -8
 121              		.cfi_offset 14, -4
  41:main.c        ****     i = 0;
 122              		.loc 1 41 0
 123 0002 0022     		movs	r2, #0
 124 0004 1B4B     		ldr	r3, .L15
 125 0006 1A80     		strh	r2, [r3]	@ movhi
  42:main.c        ****     
  43:main.c        ****     WaveDAC8_1_Start();
 126              		.loc 1 43 0
 127 0008 FFF7FEFF 		bl	WaveDAC8_1_Start
 128              	.LVL3:
ARM GAS  C:\Users\GEORGE~1\AppData\Local\Temp\ccyt0Bew.s 			page 4


  44:main.c        ****     
  45:main.c        ****     WaveDone_Start();
 129              		.loc 1 45 0
 130 000c FFF7FEFF 		bl	WaveDone_Start
 131              	.LVL4:
  46:main.c        ****     WaveDone_StartEx(WaveDone);
 132              		.loc 1 46 0
 133 0010 1948     		ldr	r0, .L15+4
 134 0012 FFF7FEFF 		bl	WaveDone_StartEx
 135              	.LVL5:
  47:main.c        ****     
  48:main.c        ****     WaveDone_Enable();
 136              		.loc 1 48 0
 137 0016 FFF7FEFF 		bl	WaveDone_Enable
 138              	.LVL6:
  49:main.c        ****     
  50:main.c        ****     ADC_DelSig_1_Start();
 139              		.loc 1 50 0
 140 001a FFF7FEFF 		bl	ADC_DelSig_1_Start
 141              	.LVL7:
  51:main.c        ****     
  52:main.c        ****     ADCInterrupt_Start();
 142              		.loc 1 52 0
 143 001e FFF7FEFF 		bl	ADCInterrupt_Start
 144              	.LVL8:
  53:main.c        ****     ADCInterrupt_StartEx(ADCInterrupt);
 145              		.loc 1 53 0
 146 0022 1648     		ldr	r0, .L15+8
 147 0024 FFF7FEFF 		bl	ADCInterrupt_StartEx
 148              	.LVL9:
  54:main.c        ****     
  55:main.c        ****     ADCInterrupt_Enable();
 149              		.loc 1 55 0
 150 0028 FFF7FEFF 		bl	ADCInterrupt_Enable
 151              	.LVL10:
  56:main.c        ****     
  57:main.c        ****     CyGlobalIntEnable; /* Enable global interrupts. */
 152              		.loc 1 57 0
 153              		.syntax unified
 154              	@ 57 "main.c" 1
 155 002c 62B6     		CPSIE   i
 156              	@ 0 "" 2
  58:main.c        **** 
  59:main.c        ****     /* Place your initialization/startup code here (e.g. MyInst_Start()) */
  60:main.c        ****     ADC_DelSig_1_StartConvert();
 157              		.loc 1 60 0
 158              		.thumb
 159              		.syntax unified
 160 002e FFF7FEFF 		bl	ADC_DelSig_1_StartConvert
 161              	.LVL11:
  61:main.c        ****     
  62:main.c        ****    UART_1_Start();
 162              		.loc 1 62 0
 163 0032 FFF7FEFF 		bl	UART_1_Start
 164              	.LVL12:
 165              	.L11:
  63:main.c        ****     
ARM GAS  C:\Users\GEORGE~1\AppData\Local\Temp\ccyt0Bew.s 			page 5


  64:main.c        ****     for(;;)
  65:main.c        ****     {
  66:main.c        ****         /* Place your application code here. */
  67:main.c        ****         Ch = UART_1_GetChar();
 166              		.loc 1 67 0
 167 0036 FFF7FEFF 		bl	UART_1_GetChar
 168              	.LVL13:
 169 003a 114B     		ldr	r3, .L15+12
 170 003c 1870     		strb	r0, [r3]
  68:main.c        ****         
  69:main.c        ****         switch(Ch)
 171              		.loc 1 69 0
 172 003e 4528     		cmp	r0, #69
 173 0040 01D0     		beq	.L12
 174 0042 6528     		cmp	r0, #101
 175 0044 F7D1     		bne	.L11
 176              	.L12:
  70:main.c        ****         {
  71:main.c        ****             case 0:
  72:main.c        ****                 
  73:main.c        ****                 break;
  74:main.c        ****             case 'C':
  75:main.c        ****             case 'c':
  76:main.c        ****                 
  77:main.c        ****                 break;
  78:main.c        ****             case 'S':
  79:main.c        ****             case 's':
  80:main.c        ****                
  81:main.c        ****                 break;
  82:main.c        ****             case 'X':
  83:main.c        ****             case 'x':
  84:main.c        ****                 
  85:main.c        ****                 break;
  86:main.c        ****             case 'E':
  87:main.c        ****             case 'e':
  88:main.c        ****             
  89:main.c        ****                 while(DataReady == 0);
 177              		.loc 1 89 0 discriminator 1
 178 0046 0F4B     		ldr	r3, .L15+16
 179 0048 1B88     		ldrh	r3, [r3]
 180 004a 002B     		cmp	r3, #0
 181 004c FBD0     		beq	.L12
  90:main.c        ****                 
  91:main.c        ****                 WaveDone_Disable();
 182              		.loc 1 91 0
 183 004e FFF7FEFF 		bl	WaveDone_Disable
 184              	.LVL14:
  92:main.c        ****                 LEDDrive_Write(1);
 185              		.loc 1 92 0
 186 0052 0120     		movs	r0, #1
 187 0054 FFF7FEFF 		bl	LEDDrive_Write
 188              	.LVL15:
  93:main.c        ****                 UART_1_PutArray((uint8 *)Output,64);
 189              		.loc 1 93 0
 190 0058 4021     		movs	r1, #64
 191 005a 0B48     		ldr	r0, .L15+20
 192 005c FFF7FEFF 		bl	UART_1_PutArray
ARM GAS  C:\Users\GEORGE~1\AppData\Local\Temp\ccyt0Bew.s 			page 6


 193              	.LVL16:
  94:main.c        ****                 LEDDrive_Write(0);
 194              		.loc 1 94 0
 195 0060 0020     		movs	r0, #0
 196 0062 FFF7FEFF 		bl	LEDDrive_Write
 197              	.LVL17:
  95:main.c        ****                 DataReady = 0;
 198              		.loc 1 95 0
 199 0066 0022     		movs	r2, #0
 200 0068 064B     		ldr	r3, .L15+16
 201 006a 1A80     		strh	r2, [r3]	@ movhi
  96:main.c        ****                 WaveDone_Enable();
 202              		.loc 1 96 0
 203 006c FFF7FEFF 		bl	WaveDone_Enable
 204              	.LVL18:
  97:main.c        ****                 break;
 205              		.loc 1 97 0
 206 0070 E1E7     		b	.L11
 207              	.L16:
 208 0072 00BF     		.align	2
 209              	.L15:
 210 0074 00000000 		.word	i
 211 0078 00000000 		.word	WaveDone
 212 007c 00000000 		.word	ADCInterrupt
 213 0080 00000000 		.word	Ch
 214 0084 00000000 		.word	.LANCHOR0
 215 0088 00000000 		.word	Output
 216              		.cfi_endproc
 217              	.LFE65:
 218              		.size	main, .-main
 219              		.comm	i,2,2
 220              		.comm	Ch,1,1
 221              		.global	DataReady
 222              		.comm	Output,1024,4
 223              		.bss
 224              		.align	1
 225              		.set	.LANCHOR0,. + 0
 226              		.type	DataReady, %object
 227              		.size	DataReady, 2
 228              	DataReady:
 229 0000 0000     		.space	2
 230              		.text
 231              	.Letext0:
 232              		.file 2 "c:\\program files (x86)\\cypress\\psoc creator\\4.2\\psoc creator\\import\\gnu\\arm\\5.4.
 233              		.file 3 "c:\\program files (x86)\\cypress\\psoc creator\\4.2\\psoc creator\\import\\gnu\\arm\\5.4.
 234              		.file 4 "Generated_Source\\PSoC5/cytypes.h"
 235              		.file 5 "Generated_Source\\PSoC5/core_cm3.h"
 236              		.file 6 "Generated_Source\\PSoC5/Marker1Drive.h"
 237              		.file 7 "Generated_Source\\PSoC5/ADC_DelSig_1.h"
 238              		.file 8 "Generated_Source\\PSoC5/WaveDAC8_1.h"
 239              		.file 9 "Generated_Source\\PSoC5/WaveDone.h"
 240              		.file 10 "Generated_Source\\PSoC5/ADCInterrupt.h"
 241              		.file 11 "Generated_Source\\PSoC5/UART_1.h"
 242              		.file 12 "Generated_Source\\PSoC5/LEDDrive.h"