ARM GAS  C:\Users\GEORGE~1\AppData\Local\Temp\ccXoBNb5.s 			page 1


   1              		.syntax unified
   2              		.cpu cortex-m3
   3              		.fpu softvfp
   4              		.eabi_attribute 20, 1
   5              		.eabi_attribute 21, 1
   6              		.eabi_attribute 23, 3
   7              		.eabi_attribute 24, 1
   8              		.eabi_attribute 25, 1
   9              		.eabi_attribute 26, 1
  10              		.eabi_attribute 30, 1
  11              		.eabi_attribute 34, 1
  12              		.eabi_attribute 18, 4
  13              		.thumb
  14              		.syntax unified
  15              		.file	"main.c"
  16              		.text
  17              	.Ltext0:
  18              		.cfi_sections	.debug_frame
  19              		.section	.text.ByteReceived,"ax",%progbits
  20              		.align	2
  21              		.global	ByteReceived
  22              		.thumb
  23              		.thumb_func
  24              		.type	ByteReceived, %function
  25              	ByteReceived:
  26              	.LFB63:
  27              		.file 1 "main.c"
   1:main.c        **** /* ========================================
   2:main.c        ****  *
   3:main.c        ****  * Copyright YOUR COMPANY, THE YEAR
   4:main.c        ****  * All Rights Reserved
   5:main.c        ****  * UNPUBLISHED, LICENSED SOFTWARE.
   6:main.c        ****  *
   7:main.c        ****  * CONFIDENTIAL AND PROPRIETARY INFORMATION
   8:main.c        ****  * WHICH IS THE PROPERTY OF your company.
   9:main.c        ****  *
  10:main.c        ****  * ========================================
  11:main.c        **** */
  12:main.c        **** #include "project.h"
  13:main.c        **** 
  14:main.c        **** uint8 ByteCount = 0;
  15:main.c        **** uint8 firstbyte = 0;
  16:main.c        **** uint8 CommandReady = 0;
  17:main.c        **** uint8 Count = 0;
  18:main.c        **** uint8 Status;
  19:main.c        **** 
  20:main.c        **** uint8 ReceivedBuffer[66];
  21:main.c        **** uint8 TransmitBuffer[66];
  22:main.c        **** 
  23:main.c        **** struct command_protocol
  24:main.c        **** {
  25:main.c        ****     uint8 packet_size;
  26:main.c        ****     uint8 command;
  27:main.c        ****     uint8 buffer[64];
  28:main.c        **** } Command_Packet;
  29:main.c        **** 
  30:main.c        **** struct command_protocol Transmit_Packet;
ARM GAS  C:\Users\GEORGE~1\AppData\Local\Temp\ccXoBNb5.s 			page 2


  31:main.c        **** 
  32:main.c        **** CY_ISR(ByteReceived)
  33:main.c        **** { 
  28              		.loc 1 33 0
  29              		.cfi_startproc
  30              		@ args = 0, pretend = 0, frame = 0
  31              		@ frame_needed = 0, uses_anonymous_args = 0
  32 0000 38B5     		push	{r3, r4, r5, lr}
  33              		.cfi_def_cfa_offset 16
  34              		.cfi_offset 3, -16
  35              		.cfi_offset 4, -12
  36              		.cfi_offset 5, -8
  37              		.cfi_offset 14, -4
  34:main.c        ****     LEDDrive_Write(1);
  38              		.loc 1 34 0
  39 0002 0120     		movs	r0, #1
  40 0004 FFF7FEFF 		bl	LEDDrive_Write
  41              	.LVL0:
  35:main.c        ****     ReceivedBuffer[ByteCount++] = (uint8) (LabVIEW_UART_GetByte()&0x00ff);
  42              		.loc 1 35 0
  43 0008 0D4C     		ldr	r4, .L4
  44 000a 2578     		ldrb	r5, [r4]	@ zero_extendqisi2
  45 000c 6B1C     		adds	r3, r5, #1
  46 000e 2370     		strb	r3, [r4]
  47 0010 FFF7FEFF 		bl	LabVIEW_UART_GetByte
  48              	.LVL1:
  49 0014 0B4B     		ldr	r3, .L4+4
  50 0016 5855     		strb	r0, [r3, r5]
  36:main.c        ****     if(firstbyte == 0)
  51              		.loc 1 36 0
  52 0018 6378     		ldrb	r3, [r4, #1]	@ zero_extendqisi2
  53 001a 2BB9     		cbnz	r3, .L2
  37:main.c        ****     {
  38:main.c        ****         ByteCounter_WriteCompare(ReceivedBuffer[0]);
  54              		.loc 1 38 0
  55 001c 094B     		ldr	r3, .L4+4
  56 001e 1878     		ldrb	r0, [r3]	@ zero_extendqisi2
  57 0020 FFF7FEFF 		bl	ByteCounter_WriteCompare
  58              	.LVL2:
  39:main.c        ****         firstbyte = 1;
  59              		.loc 1 39 0
  60 0024 0122     		movs	r2, #1
  61 0026 6270     		strb	r2, [r4, #1]
  62              	.L2:
  40:main.c        ****    
  41:main.c        ****     }
  42:main.c        ****     Count = ByteCounter_ReadCounter();
  63              		.loc 1 42 0
  64 0028 FFF7FEFF 		bl	ByteCounter_ReadCounter
  65              	.LVL3:
  66 002c 044B     		ldr	r3, .L4
  67 002e 9870     		strb	r0, [r3, #2]
  43:main.c        ****     Status = ByteCounter_ReadStatusRegister();
  68              		.loc 1 43 0
  69 0030 FFF7FEFF 		bl	ByteCounter_ReadStatusRegister
  70              	.LVL4:
  71 0034 044B     		ldr	r3, .L4+8
ARM GAS  C:\Users\GEORGE~1\AppData\Local\Temp\ccXoBNb5.s 			page 3


  72 0036 1870     		strb	r0, [r3]
  44:main.c        ****     LEDDrive_Write(0);
  73              		.loc 1 44 0
  74 0038 0020     		movs	r0, #0
  75 003a FFF7FEFF 		bl	LEDDrive_Write
  76              	.LVL5:
  77 003e 38BD     		pop	{r3, r4, r5, pc}
  78              	.L5:
  79              		.align	2
  80              	.L4:
  81 0040 00000000 		.word	.LANCHOR0
  82 0044 00000000 		.word	ReceivedBuffer
  83 0048 00000000 		.word	Status
  84              		.cfi_endproc
  85              	.LFE63:
  86              		.size	ByteReceived, .-ByteReceived
  87              		.section	.text.CommandReceived,"ax",%progbits
  88              		.align	2
  89              		.global	CommandReceived
  90              		.thumb
  91              		.thumb_func
  92              		.type	CommandReceived, %function
  93              	CommandReceived:
  94              	.LFB64:
  45:main.c        ****     
  46:main.c        **** }
  47:main.c        **** 
  48:main.c        **** CY_ISR(CommandReceived)
  49:main.c        **** {
  95              		.loc 1 49 0
  96              		.cfi_startproc
  97              		@ args = 0, pretend = 0, frame = 0
  98              		@ frame_needed = 0, uses_anonymous_args = 0
  99 0000 08B5     		push	{r3, lr}
 100              		.cfi_def_cfa_offset 8
 101              		.cfi_offset 3, -8
 102              		.cfi_offset 14, -4
  50:main.c        ****     uint8 i;
  51:main.c        ****     
  52:main.c        ****     if(CommandReady == 0)
 103              		.loc 1 52 0
 104 0002 114B     		ldr	r3, .L11
 105 0004 DB78     		ldrb	r3, [r3, #3]	@ zero_extendqisi2
 106 0006 C3B9     		cbnz	r3, .L7
  53:main.c        ****     {
  54:main.c        ****         Command_Packet.packet_size = ReceivedBuffer[0];
 107              		.loc 1 54 0
 108 0008 104A     		ldr	r2, .L11+4
 109 000a 1078     		ldrb	r0, [r2]	@ zero_extendqisi2
 110 000c 104B     		ldr	r3, .L11+8
 111 000e 1870     		strb	r0, [r3]
  55:main.c        ****         Command_Packet.command = ReceivedBuffer[1];
 112              		.loc 1 55 0
 113 0010 5278     		ldrb	r2, [r2, #1]	@ zero_extendqisi2
 114 0012 5A70     		strb	r2, [r3, #1]
 115              	.LVL6:
  56:main.c        ****     
ARM GAS  C:\Users\GEORGE~1\AppData\Local\Temp\ccXoBNb5.s 			page 4


  57:main.c        ****         for(i=0;i<(Command_Packet.packet_size - 2);i++)
 116              		.loc 1 57 0
 117 0014 0023     		movs	r3, #0
 118 0016 07E0     		b	.L8
 119              	.LVL7:
 120              	.L9:
  58:main.c        ****         {
  59:main.c        ****             Command_Packet.buffer[i] =  ReceivedBuffer[i+2];
 121              		.loc 1 59 0 discriminator 3
 122 0018 9A1C     		adds	r2, r3, #2
 123 001a 0C49     		ldr	r1, .L11+4
 124 001c 895C     		ldrb	r1, [r1, r2]	@ zero_extendqisi2
 125 001e 0C4A     		ldr	r2, .L11+8
 126 0020 1A44     		add	r2, r2, r3
 127 0022 9170     		strb	r1, [r2, #2]
  57:main.c        ****         {
 128              		.loc 1 57 0 discriminator 3
 129 0024 0133     		adds	r3, r3, #1
 130              	.LVL8:
 131 0026 DBB2     		uxtb	r3, r3
 132              	.LVL9:
 133              	.L8:
  57:main.c        ****         {
 134              		.loc 1 57 0 is_stmt 0 discriminator 1
 135 0028 821E     		subs	r2, r0, #2
 136 002a 9342     		cmp	r3, r2
 137 002c F4DB     		blt	.L9
  60:main.c        ****         }
  61:main.c        ****     
  62:main.c        ****         firstbyte = 0;
 138              		.loc 1 62 0 is_stmt 1
 139 002e 064B     		ldr	r3, .L11
 140              	.LVL10:
 141 0030 0022     		movs	r2, #0
 142 0032 5A70     		strb	r2, [r3, #1]
  63:main.c        ****         CommandReady = 1;
 143              		.loc 1 63 0
 144 0034 0121     		movs	r1, #1
 145 0036 D970     		strb	r1, [r3, #3]
  64:main.c        ****         ByteCount = 0;
 146              		.loc 1 64 0
 147 0038 1A70     		strb	r2, [r3]
 148              	.L7:
  65:main.c        ****     }
  66:main.c        ****     ByteCounter_ReadStatusRegister();
 149              		.loc 1 66 0
 150 003a FFF7FEFF 		bl	ByteCounter_ReadStatusRegister
 151              	.LVL11:
  67:main.c        ****     LEDDrive_Write(0);
 152              		.loc 1 67 0
 153 003e 0020     		movs	r0, #0
 154 0040 FFF7FEFF 		bl	LEDDrive_Write
 155              	.LVL12:
 156 0044 08BD     		pop	{r3, pc}
 157              	.L12:
 158 0046 00BF     		.align	2
 159              	.L11:
ARM GAS  C:\Users\GEORGE~1\AppData\Local\Temp\ccXoBNb5.s 			page 5


 160 0048 00000000 		.word	.LANCHOR0
 161 004c 00000000 		.word	ReceivedBuffer
 162 0050 00000000 		.word	Command_Packet
 163              		.cfi_endproc
 164              	.LFE64:
 165              		.size	CommandReceived, .-CommandReceived
 166              		.section	.text.main,"ax",%progbits
 167              		.align	2
 168              		.global	main
 169              		.thumb
 170              		.thumb_func
 171              		.type	main, %function
 172              	main:
 173              	.LFB65:
  68:main.c        **** }
  69:main.c        **** 
  70:main.c        **** int main(void)
  71:main.c        **** {
 174              		.loc 1 71 0
 175              		.cfi_startproc
 176              		@ args = 0, pretend = 0, frame = 0
 177              		@ frame_needed = 0, uses_anonymous_args = 0
 178 0000 10B5     		push	{r4, lr}
 179              		.cfi_def_cfa_offset 8
 180              		.cfi_offset 4, -8
 181              		.cfi_offset 14, -4
  72:main.c        ****     uint8 i;
  73:main.c        ****     
  74:main.c        ****     MotorKill_Write(1);
 182              		.loc 1 74 0
 183 0002 0120     		movs	r0, #1
 184 0004 FFF7FEFF 		bl	MotorKill_Write
 185              	.LVL13:
  75:main.c        ****     
  76:main.c        ****     UARTReset_Write(0);
 186              		.loc 1 76 0
 187 0008 0020     		movs	r0, #0
 188 000a FFF7FEFF 		bl	UARTReset_Write
 189              	.LVL14:
  77:main.c        ****     ByteCountReset_Write(0);
 190              		.loc 1 77 0
 191 000e 0020     		movs	r0, #0
 192 0010 FFF7FEFF 		bl	ByteCountReset_Write
 193              	.LVL15:
  78:main.c        ****     
  79:main.c        ****     LabVIEW_UART_Start();
 194              		.loc 1 79 0
 195 0014 FFF7FEFF 		bl	LabVIEW_UART_Start
 196              	.LVL16:
  80:main.c        ****     MotorDrive_Start();
 197              		.loc 1 80 0
 198 0018 FFF7FEFF 		bl	MotorDrive_Start
 199              	.LVL17:
  81:main.c        ****     
  82:main.c        ****     MotorDrive_WriteCompare(0);
 200              		.loc 1 82 0
 201 001c 0020     		movs	r0, #0
ARM GAS  C:\Users\GEORGE~1\AppData\Local\Temp\ccXoBNb5.s 			page 6


 202 001e FFF7FEFF 		bl	MotorDrive_WriteCompare
 203              	.LVL18:
  83:main.c        ****     
  84:main.c        ****     
  85:main.c        ****     
  86:main.c        ****     ByteCounter_Start();
 204              		.loc 1 86 0
 205 0022 FFF7FEFF 		bl	ByteCounter_Start
 206              	.LVL19:
  87:main.c        ****     ByteCounter_Enable();
 207              		.loc 1 87 0
 208 0026 FFF7FEFF 		bl	ByteCounter_Enable
 209              	.LVL20:
  88:main.c        ****     ByteCounter_SetInterruptMode(ByteCounter_STATUS_CMP_INT_EN_MASK);
 210              		.loc 1 88 0
 211 002a 0120     		movs	r0, #1
 212 002c FFF7FEFF 		bl	ByteCounter_SetInterruptMode
 213              	.LVL21:
  89:main.c        ****        
  90:main.c        ****     ByteReceived_Start();
 214              		.loc 1 90 0
 215 0030 FFF7FEFF 		bl	ByteReceived_Start
 216              	.LVL22:
  91:main.c        ****     ByteReceived_StartEx(ByteReceived);
 217              		.loc 1 91 0
 218 0034 3748     		ldr	r0, .L27
 219 0036 FFF7FEFF 		bl	ByteReceived_StartEx
 220              	.LVL23:
  92:main.c        ****     ByteReceived_Enable();
 221              		.loc 1 92 0
 222 003a FFF7FEFF 		bl	ByteReceived_Enable
 223              	.LVL24:
  93:main.c        ****     
  94:main.c        ****     CommandReceived_Start();
 224              		.loc 1 94 0
 225 003e FFF7FEFF 		bl	CommandReceived_Start
 226              	.LVL25:
  95:main.c        ****     CommandReceived_StartEx(CommandReceived);
 227              		.loc 1 95 0
 228 0042 3548     		ldr	r0, .L27+4
 229 0044 FFF7FEFF 		bl	CommandReceived_StartEx
 230              	.LVL26:
  96:main.c        ****     CommandReceived_Enable();
 231              		.loc 1 96 0
 232 0048 FFF7FEFF 		bl	CommandReceived_Enable
 233              	.LVL27:
  97:main.c        ****     
  98:main.c        ****    
  99:main.c        ****     
 100:main.c        ****     CyGlobalIntEnable; /* Enable global interrupts. */
 234              		.loc 1 100 0
 235              		.syntax unified
 236              	@ 100 "main.c" 1
 237 004c 62B6     		CPSIE   i
 238              	@ 0 "" 2
 239              		.thumb
 240              		.syntax unified
ARM GAS  C:\Users\GEORGE~1\AppData\Local\Temp\ccXoBNb5.s 			page 7


 241              	.L14:
 101:main.c        **** 
 102:main.c        ****     /* Place your initialization/startup code here (e.g. MyInst_Start()) */
 103:main.c        **** 
 104:main.c        ****     //LabVIEW_UART_PutString("PSOC Started\r\n");
 105:main.c        ****     
 106:main.c        ****     for(;;)
 107:main.c        ****     {
 108:main.c        ****         /* Place your application code here. */
 109:main.c        ****         
 110:main.c        ****         if(CommandReady)
 242              		.loc 1 110 0
 243 004e 334B     		ldr	r3, .L27+8
 244 0050 DB78     		ldrb	r3, [r3, #3]	@ zero_extendqisi2
 245 0052 002B     		cmp	r3, #0
 246 0054 FBD0     		beq	.L14
 111:main.c        ****         {
 112:main.c        ****             Transmit_Packet.command = Command_Packet.command;
 247              		.loc 1 112 0
 248 0056 324A     		ldr	r2, .L27+12
 249 0058 5378     		ldrb	r3, [r2, #1]	@ zero_extendqisi2
 250 005a 3248     		ldr	r0, .L27+16
 251 005c 4370     		strb	r3, [r0, #1]
 113:main.c        ****             TransmitBuffer[1] = Transmit_Packet.command;
 252              		.loc 1 113 0
 253 005e 3249     		ldr	r1, .L27+20
 254 0060 4B70     		strb	r3, [r1, #1]
 114:main.c        ****             Transmit_Packet.packet_size = Command_Packet.packet_size;
 255              		.loc 1 114 0
 256 0062 1278     		ldrb	r2, [r2]	@ zero_extendqisi2
 257 0064 0270     		strb	r2, [r0]
 115:main.c        ****             TransmitBuffer[0] = Transmit_Packet.packet_size;
 258              		.loc 1 115 0
 259 0066 0A70     		strb	r2, [r1]
 116:main.c        **** 
 117:main.c        ****             switch(Command_Packet.command)
 260              		.loc 1 117 0
 261 0068 012B     		cmp	r3, #1
 262 006a 27D0     		beq	.L24
 263 006c 73B1     		cbz	r3, .L23
 264 006e 022B     		cmp	r3, #2
 265 0070 3CD0     		beq	.L25
 266 0072 49E0     		b	.L15
 267              	.LVL28:
 268              	.L19:
 118:main.c        ****             {
 119:main.c        ****                 case 0: //Motor Kill
 120:main.c        ****                     for(i=0;i<(Transmit_Packet.packet_size-2);i++)
 121:main.c        ****                     {
 122:main.c        ****                             Transmit_Packet.buffer[i+2] = Command_Packet.buffer[i];
 269              		.loc 1 122 0 discriminator 3
 270 0074 981C     		adds	r0, r3, #2
 271 0076 2A49     		ldr	r1, .L27+12
 272 0078 1944     		add	r1, r1, r3
 273 007a 8C78     		ldrb	r4, [r1, #2]	@ zero_extendqisi2
 274 007c 2949     		ldr	r1, .L27+16
 275 007e 0144     		add	r1, r1, r0
ARM GAS  C:\Users\GEORGE~1\AppData\Local\Temp\ccXoBNb5.s 			page 8


 276 0080 8C70     		strb	r4, [r1, #2]
 123:main.c        ****                             TransmitBuffer[i+2] = Transmit_Packet.buffer[i+2];
 277              		.loc 1 123 0 discriminator 3
 278 0082 2949     		ldr	r1, .L27+20
 279 0084 0C54     		strb	r4, [r1, r0]
 120:main.c        ****                     {
 280              		.loc 1 120 0 discriminator 3
 281 0086 0133     		adds	r3, r3, #1
 282              	.LVL29:
 283 0088 DBB2     		uxtb	r3, r3
 284              	.LVL30:
 285 008a 00E0     		b	.L17
 286              	.LVL31:
 287              	.L23:
 117:main.c        ****             {
 288              		.loc 1 117 0
 289 008c 0023     		movs	r3, #0
 290              	.L17:
 291              	.LVL32:
 120:main.c        ****                     {
 292              		.loc 1 120 0 discriminator 1
 293 008e 911E     		subs	r1, r2, #2
 294 0090 8B42     		cmp	r3, r1
 295 0092 EFDB     		blt	.L19
 124:main.c        ****                     }
 125:main.c        ****                     CommandReady = 0;
 296              		.loc 1 125 0
 297 0094 0022     		movs	r2, #0
 298 0096 214B     		ldr	r3, .L27+8
 299              	.LVL33:
 300 0098 DA70     		strb	r2, [r3, #3]
 126:main.c        ****                     
 127:main.c        ****                     MotorKill_Write(Command_Packet.buffer[0]);
 301              		.loc 1 127 0
 302 009a 214B     		ldr	r3, .L27+12
 303 009c 9878     		ldrb	r0, [r3, #2]	@ zero_extendqisi2
 304 009e FFF7FEFF 		bl	MotorKill_Write
 305              	.LVL34:
 128:main.c        ****                     
 129:main.c        ****                 break;
 306              		.loc 1 129 0
 307 00a2 31E0     		b	.L15
 308              	.LVL35:
 309              	.L20:
 130:main.c        ****                 case 1: //Set Motor Direction
 131:main.c        ****                     for(i=0;i<(Transmit_Packet.packet_size-2);i++)
 132:main.c        ****                     {
 133:main.c        ****                             Transmit_Packet.buffer[i+2] = Command_Packet.buffer[i];
 310              		.loc 1 133 0 discriminator 3
 311 00a4 981C     		adds	r0, r3, #2
 312 00a6 1E49     		ldr	r1, .L27+12
 313 00a8 1944     		add	r1, r1, r3
 314 00aa 8C78     		ldrb	r4, [r1, #2]	@ zero_extendqisi2
 315 00ac 1D49     		ldr	r1, .L27+16
 316 00ae 0144     		add	r1, r1, r0
 317 00b0 8C70     		strb	r4, [r1, #2]
 134:main.c        ****                             TransmitBuffer[i+2] = Transmit_Packet.buffer[i+2];
ARM GAS  C:\Users\GEORGE~1\AppData\Local\Temp\ccXoBNb5.s 			page 9


 318              		.loc 1 134 0 discriminator 3
 319 00b2 1D49     		ldr	r1, .L27+20
 320 00b4 0C54     		strb	r4, [r1, r0]
 131:main.c        ****                     {
 321              		.loc 1 131 0 discriminator 3
 322 00b6 0133     		adds	r3, r3, #1
 323              	.LVL36:
 324 00b8 DBB2     		uxtb	r3, r3
 325              	.LVL37:
 326 00ba 00E0     		b	.L16
 327              	.LVL38:
 328              	.L24:
 117:main.c        ****             {
 329              		.loc 1 117 0
 330 00bc 0023     		movs	r3, #0
 331              	.L16:
 332              	.LVL39:
 131:main.c        ****                     {
 333              		.loc 1 131 0 discriminator 1
 334 00be 911E     		subs	r1, r2, #2
 335 00c0 8B42     		cmp	r3, r1
 336 00c2 EFDB     		blt	.L20
 135:main.c        ****                     }
 136:main.c        ****                     CommandReady = 0;
 337              		.loc 1 136 0
 338 00c4 0022     		movs	r2, #0
 339 00c6 154B     		ldr	r3, .L27+8
 340              	.LVL40:
 341 00c8 DA70     		strb	r2, [r3, #3]
 137:main.c        ****                     
 138:main.c        ****                     Direction_Write(Command_Packet.buffer[0]);
 342              		.loc 1 138 0
 343 00ca 154B     		ldr	r3, .L27+12
 344 00cc 9878     		ldrb	r0, [r3, #2]	@ zero_extendqisi2
 345 00ce FFF7FEFF 		bl	Direction_Write
 346              	.LVL41:
 139:main.c        ****                     
 140:main.c        ****                 break;
 347              		.loc 1 140 0
 348 00d2 19E0     		b	.L15
 349              	.LVL42:
 350              	.L21:
 141:main.c        ****                 case 2: //Set Motor Control Value
 142:main.c        ****                     for(i=0;i<(Transmit_Packet.packet_size-2);i++)
 143:main.c        ****                     {
 144:main.c        ****                             Transmit_Packet.buffer[i+2] = Command_Packet.buffer[i];
 351              		.loc 1 144 0 discriminator 3
 352 00d4 981C     		adds	r0, r3, #2
 353 00d6 1249     		ldr	r1, .L27+12
 354 00d8 1944     		add	r1, r1, r3
 355 00da 8C78     		ldrb	r4, [r1, #2]	@ zero_extendqisi2
 356 00dc 1149     		ldr	r1, .L27+16
 357 00de 0144     		add	r1, r1, r0
 358 00e0 8C70     		strb	r4, [r1, #2]
 145:main.c        ****                             TransmitBuffer[i+2] = Transmit_Packet.buffer[i+2];
 359              		.loc 1 145 0 discriminator 3
 360 00e2 1149     		ldr	r1, .L27+20
ARM GAS  C:\Users\GEORGE~1\AppData\Local\Temp\ccXoBNb5.s 			page 10


 361 00e4 0C54     		strb	r4, [r1, r0]
 142:main.c        ****                     {
 362              		.loc 1 142 0 discriminator 3
 363 00e6 0133     		adds	r3, r3, #1
 364              	.LVL43:
 365 00e8 DBB2     		uxtb	r3, r3
 366              	.LVL44:
 367 00ea 00E0     		b	.L18
 368              	.LVL45:
 369              	.L25:
 117:main.c        ****             {
 370              		.loc 1 117 0
 371 00ec 0023     		movs	r3, #0
 372              	.L18:
 373              	.LVL46:
 142:main.c        ****                     {
 374              		.loc 1 142 0 discriminator 1
 375 00ee 911E     		subs	r1, r2, #2
 376 00f0 8B42     		cmp	r3, r1
 377 00f2 EFDB     		blt	.L21
 146:main.c        ****                     }
 147:main.c        ****                     CommandReady = 0;
 378              		.loc 1 147 0
 379 00f4 0022     		movs	r2, #0
 380 00f6 094B     		ldr	r3, .L27+8
 381              	.LVL47:
 382 00f8 DA70     		strb	r2, [r3, #3]
 148:main.c        ****                     
 149:main.c        ****                     MotorDrive_WriteCompare((int16)((Command_Packet.buffer[1])<<8)|(Command_Packet.
 383              		.loc 1 149 0
 384 00fa 094B     		ldr	r3, .L27+12
 385 00fc D878     		ldrb	r0, [r3, #3]	@ zero_extendqisi2
 386 00fe 9B78     		ldrb	r3, [r3, #2]	@ zero_extendqisi2
 387 0100 43EA0020 		orr	r0, r3, r0, lsl #8
 388 0104 FFF7FEFF 		bl	MotorDrive_WriteCompare
 389              	.LVL48:
 390              	.L15:
 150:main.c        ****                     
 151:main.c        ****                 break;
 152:main.c        ****                 default:
 153:main.c        ****                 break;
 154:main.c        ****             }
 155:main.c        ****             LabVIEW_UART_PutArray(TransmitBuffer,Transmit_Packet.packet_size);
 391              		.loc 1 155 0
 392 0108 064B     		ldr	r3, .L27+16
 393 010a 1978     		ldrb	r1, [r3]	@ zero_extendqisi2
 394 010c 0648     		ldr	r0, .L27+20
 395 010e FFF7FEFF 		bl	LabVIEW_UART_PutArray
 396              	.LVL49:
 397 0112 9CE7     		b	.L14
 398              	.L28:
 399              		.align	2
 400              	.L27:
 401 0114 00000000 		.word	ByteReceived
 402 0118 00000000 		.word	CommandReceived
 403 011c 00000000 		.word	.LANCHOR0
 404 0120 00000000 		.word	Command_Packet
ARM GAS  C:\Users\GEORGE~1\AppData\Local\Temp\ccXoBNb5.s 			page 11


 405 0124 00000000 		.word	Transmit_Packet
 406 0128 00000000 		.word	TransmitBuffer
 407              		.cfi_endproc
 408              	.LFE65:
 409              		.size	main, .-main
 410              		.comm	Transmit_Packet,66,4
 411              		.comm	Command_Packet,66,4
 412              		.comm	TransmitBuffer,66,4
 413              		.comm	ReceivedBuffer,66,4
 414              		.comm	Status,1,1
 415              		.global	Count
 416              		.global	CommandReady
 417              		.global	firstbyte
 418              		.global	ByteCount
 419              		.bss
 420              		.set	.LANCHOR0,. + 0
 421              		.type	ByteCount, %object
 422              		.size	ByteCount, 1
 423              	ByteCount:
 424 0000 00       		.space	1
 425              		.type	firstbyte, %object
 426              		.size	firstbyte, 1
 427              	firstbyte:
 428 0001 00       		.space	1
 429              		.type	Count, %object
 430              		.size	Count, 1
 431              	Count:
 432 0002 00       		.space	1
 433              		.type	CommandReady, %object
 434              		.size	CommandReady, 1
 435              	CommandReady:
 436 0003 00       		.space	1
 437              		.text
 438              	.Letext0:
 439              		.file 2 "c:\\program files (x86)\\cypress\\psoc creator\\4.2\\psoc creator\\import\\gnu\\arm\\5.4.
 440              		.file 3 "c:\\program files (x86)\\cypress\\psoc creator\\4.2\\psoc creator\\import\\gnu\\arm\\5.4.
 441              		.file 4 "Generated_Source\\PSoC5/cytypes.h"
 442              		.file 5 "Generated_Source\\PSoC5/core_cm3.h"
 443              		.file 6 "Generated_Source\\PSoC5/LEDDrive.h"
 444              		.file 7 "Generated_Source\\PSoC5/LabVIEW_UART.h"
 445              		.file 8 "Generated_Source\\PSoC5/ByteCounter.h"
 446              		.file 9 "Generated_Source\\PSoC5/MotorKill.h"
 447              		.file 10 "Generated_Source\\PSoC5/UARTReset.h"
 448              		.file 11 "Generated_Source\\PSoC5/ByteCountReset.h"
 449              		.file 12 "Generated_Source\\PSoC5/MotorDrive.h"
 450              		.file 13 "Generated_Source\\PSoC5/ByteReceived.h"
 451              		.file 14 "Generated_Source\\PSoC5/CommandReceived.h"
 452              		.file 15 "Generated_Source\\PSoC5/Direction.h"