ARM GAS  C:\Users\shawn\AppData\Local\Temp\ccg4QlZ1.s 			page 1


   1              		.syntax unified
   2              		.cpu cortex-m3
   3              		.fpu softvfp
   4              		.eabi_attribute 20, 1
   5              		.eabi_attribute 21, 1
   6              		.eabi_attribute 23, 3
   7              		.eabi_attribute 24, 1
   8              		.eabi_attribute 25, 1
   9              		.eabi_attribute 26, 1
  10              		.eabi_attribute 30, 1
  11              		.eabi_attribute 34, 1
  12              		.eabi_attribute 18, 4
  13              		.thumb
  14              		.syntax unified
  15              		.file	"main.c"
  16              		.text
  17              	.Ltext0:
  18              		.cfi_sections	.debug_frame
  19              		.section	.text.TimerInterrupt,"ax",%progbits
  20              		.align	2
  21              		.global	TimerInterrupt
  22              		.thumb
  23              		.thumb_func
  24              		.type	TimerInterrupt, %function
  25              	TimerInterrupt:
  26              	.LFB63:
  27              		.file 1 "main.c"
   1:main.c        **** /* ========================================
   2:main.c        ****  Author: Shawn Marshall-Spitzbart
   3:main.c        **** (adapted from code written by George Anwar)
   4:main.c        ****  * ========================================
   5:main.c        **** */
   6:main.c        **** #include "project.h"
   7:main.c        **** 
   8:main.c        **** // Project Defines
   9:main.c        **** #define FALSE  0
  10:main.c        **** #define TRUE   1
  11:main.c        **** 
  12:main.c        **** uint8 ByteCount = 0;
  13:main.c        **** uint8 firstbyte = 0;
  14:main.c        **** uint8 CommandReady = 0;
  15:main.c        **** uint8 Count = 0;
  16:main.c        **** uint8 Status;
  17:main.c        **** 
  18:main.c        **** uint8 ReceivedBuffer[66];
  19:main.c        **** uint8 TransmitBuffer[66];
  20:main.c        **** 
  21:main.c        **** uint32 Time = 0; //ms
  22:main.c        **** uint32 TimeStart;
  23:main.c        **** 
  24:main.c        **** double Input1;
  25:main.c        **** double Input2;
  26:main.c        **** 
  27:main.c        **** struct command_protocol
  28:main.c        **** {
  29:main.c        ****     uint8 packet_size;
  30:main.c        ****     uint8 command;
ARM GAS  C:\Users\shawn\AppData\Local\Temp\ccg4QlZ1.s 			page 2


  31:main.c        ****     uint8 buffer[64];
  32:main.c        **** } Command_Packet;
  33:main.c        **** 
  34:main.c        **** struct command_protocol Transmit_Packet;
  35:main.c        **** 
  36:main.c        **** // Interrupts 
  37:main.c        **** CY_ISR(TimerInterrupt)
  38:main.c        **** {
  28              		.loc 1 38 0
  29              		.cfi_startproc
  30              		@ args = 0, pretend = 0, frame = 0
  31              		@ frame_needed = 0, uses_anonymous_args = 0
  32 0000 08B5     		push	{r3, lr}
  33              		.cfi_def_cfa_offset 8
  34              		.cfi_offset 3, -8
  35              		.cfi_offset 14, -4
  39:main.c        ****     // Timer interrupt runs at 1000Hz
  40:main.c        ****     ++Time;
  36              		.loc 1 40 0
  37 0002 034A     		ldr	r2, .L3
  38 0004 1368     		ldr	r3, [r2]
  39 0006 0133     		adds	r3, r3, #1
  40 0008 1360     		str	r3, [r2]
  41:main.c        ****     Timer_1_ReadStatusRegister();
  41              		.loc 1 41 0
  42 000a FFF7FEFF 		bl	Timer_1_ReadStatusRegister
  43              	.LVL0:
  44 000e 08BD     		pop	{r3, pc}
  45              	.L4:
  46              		.align	2
  47              	.L3:
  48 0010 00000000 		.word	.LANCHOR0
  49              		.cfi_endproc
  50              	.LFE63:
  51              		.size	TimerInterrupt, .-TimerInterrupt
  52              		.section	.text.ByteReceived,"ax",%progbits
  53              		.align	2
  54              		.global	ByteReceived
  55              		.thumb
  56              		.thumb_func
  57              		.type	ByteReceived, %function
  58              	ByteReceived:
  59              	.LFB64:
  42:main.c        **** }
  43:main.c        **** 
  44:main.c        **** CY_ISR(ByteReceived)
  45:main.c        **** { 
  60              		.loc 1 45 0
  61              		.cfi_startproc
  62              		@ args = 0, pretend = 0, frame = 0
  63              		@ frame_needed = 0, uses_anonymous_args = 0
  64 0000 38B5     		push	{r3, r4, r5, lr}
  65              		.cfi_def_cfa_offset 16
  66              		.cfi_offset 3, -16
  67              		.cfi_offset 4, -12
  68              		.cfi_offset 5, -8
  69              		.cfi_offset 14, -4
ARM GAS  C:\Users\shawn\AppData\Local\Temp\ccg4QlZ1.s 			page 3


  46:main.c        ****     //LEDDrive_Write(1);
  47:main.c        ****     ReceivedBuffer[ByteCount++] = (uint8) (UART1_GetByte()&0x00ff);
  70              		.loc 1 47 0
  71 0002 0C4C     		ldr	r4, .L8
  72 0004 2579     		ldrb	r5, [r4, #4]	@ zero_extendqisi2
  73 0006 6B1C     		adds	r3, r5, #1
  74 0008 2371     		strb	r3, [r4, #4]
  75 000a FFF7FEFF 		bl	UART1_GetByte
  76              	.LVL1:
  77 000e 0A4B     		ldr	r3, .L8+4
  78 0010 5855     		strb	r0, [r3, r5]
  48:main.c        ****     if(firstbyte == 0)
  79              		.loc 1 48 0
  80 0012 6379     		ldrb	r3, [r4, #5]	@ zero_extendqisi2
  81 0014 2BB9     		cbnz	r3, .L6
  49:main.c        ****     {
  50:main.c        ****         ByteCounter_WriteCompare(ReceivedBuffer[0]);
  82              		.loc 1 50 0
  83 0016 084B     		ldr	r3, .L8+4
  84 0018 1878     		ldrb	r0, [r3]	@ zero_extendqisi2
  85 001a FFF7FEFF 		bl	ByteCounter_WriteCompare
  86              	.LVL2:
  51:main.c        ****         firstbyte = 1;
  87              		.loc 1 51 0
  88 001e 0122     		movs	r2, #1
  89 0020 6271     		strb	r2, [r4, #5]
  90              	.L6:
  52:main.c        ****    
  53:main.c        ****     }
  54:main.c        ****     Count = ByteCounter_ReadCounter();
  91              		.loc 1 54 0
  92 0022 FFF7FEFF 		bl	ByteCounter_ReadCounter
  93              	.LVL3:
  94 0026 034B     		ldr	r3, .L8
  95 0028 9871     		strb	r0, [r3, #6]
  55:main.c        ****     Status = ByteCounter_ReadStatusRegister();
  96              		.loc 1 55 0
  97 002a FFF7FEFF 		bl	ByteCounter_ReadStatusRegister
  98              	.LVL4:
  99 002e 034B     		ldr	r3, .L8+8
 100 0030 1870     		strb	r0, [r3]
 101 0032 38BD     		pop	{r3, r4, r5, pc}
 102              	.L9:
 103              		.align	2
 104              	.L8:
 105 0034 00000000 		.word	.LANCHOR0
 106 0038 00000000 		.word	ReceivedBuffer
 107 003c 00000000 		.word	Status
 108              		.cfi_endproc
 109              	.LFE64:
 110              		.size	ByteReceived, .-ByteReceived
 111              		.section	.text.CommandReceived,"ax",%progbits
 112              		.align	2
 113              		.global	CommandReceived
 114              		.thumb
 115              		.thumb_func
 116              		.type	CommandReceived, %function
ARM GAS  C:\Users\shawn\AppData\Local\Temp\ccg4QlZ1.s 			page 4


 117              	CommandReceived:
 118              	.LFB65:
  56:main.c        ****     //LEDDrive_Write(0);
  57:main.c        ****     
  58:main.c        **** }
  59:main.c        **** 
  60:main.c        **** CY_ISR(CommandReceived)
  61:main.c        **** {
 119              		.loc 1 61 0
 120              		.cfi_startproc
 121              		@ args = 0, pretend = 0, frame = 0
 122              		@ frame_needed = 0, uses_anonymous_args = 0
 123 0000 08B5     		push	{r3, lr}
 124              		.cfi_def_cfa_offset 8
 125              		.cfi_offset 3, -8
 126              		.cfi_offset 14, -4
  62:main.c        ****     uint8 i;
  63:main.c        ****     //LEDDrive_Write(1);
  64:main.c        ****     if(CommandReady == 0)
 127              		.loc 1 64 0
 128 0002 0F4B     		ldr	r3, .L15
 129 0004 DB79     		ldrb	r3, [r3, #7]	@ zero_extendqisi2
 130 0006 C3B9     		cbnz	r3, .L11
  65:main.c        ****     {
  66:main.c        ****         Command_Packet.packet_size = ReceivedBuffer[0];
 131              		.loc 1 66 0
 132 0008 0E4A     		ldr	r2, .L15+4
 133 000a 1078     		ldrb	r0, [r2]	@ zero_extendqisi2
 134 000c 0E4B     		ldr	r3, .L15+8
 135 000e 1870     		strb	r0, [r3]
  67:main.c        ****         Command_Packet.command = ReceivedBuffer[1];
 136              		.loc 1 67 0
 137 0010 5278     		ldrb	r2, [r2, #1]	@ zero_extendqisi2
 138 0012 5A70     		strb	r2, [r3, #1]
 139              	.LVL5:
  68:main.c        ****     
  69:main.c        ****         for(i=0;i<(Command_Packet.packet_size - 2);i++)
 140              		.loc 1 69 0
 141 0014 0023     		movs	r3, #0
 142 0016 07E0     		b	.L12
 143              	.LVL6:
 144              	.L13:
  70:main.c        ****         {
  71:main.c        ****             Command_Packet.buffer[i] =  ReceivedBuffer[i+2];
 145              		.loc 1 71 0 discriminator 3
 146 0018 9A1C     		adds	r2, r3, #2
 147 001a 0A49     		ldr	r1, .L15+4
 148 001c 895C     		ldrb	r1, [r1, r2]	@ zero_extendqisi2
 149 001e 0A4A     		ldr	r2, .L15+8
 150 0020 1A44     		add	r2, r2, r3
 151 0022 9170     		strb	r1, [r2, #2]
  69:main.c        ****         {
 152              		.loc 1 69 0 discriminator 3
 153 0024 0133     		adds	r3, r3, #1
 154              	.LVL7:
 155 0026 DBB2     		uxtb	r3, r3
 156              	.LVL8:
ARM GAS  C:\Users\shawn\AppData\Local\Temp\ccg4QlZ1.s 			page 5


 157              	.L12:
  69:main.c        ****         {
 158              		.loc 1 69 0 is_stmt 0 discriminator 1
 159 0028 821E     		subs	r2, r0, #2
 160 002a 9342     		cmp	r3, r2
 161 002c F4DB     		blt	.L13
  72:main.c        ****         }
  73:main.c        ****     
  74:main.c        ****         firstbyte = 0;
 162              		.loc 1 74 0 is_stmt 1
 163 002e 044B     		ldr	r3, .L15
 164              	.LVL9:
 165 0030 0022     		movs	r2, #0
 166 0032 5A71     		strb	r2, [r3, #5]
  75:main.c        ****         CommandReady = 1;
 167              		.loc 1 75 0
 168 0034 0121     		movs	r1, #1
 169 0036 D971     		strb	r1, [r3, #7]
  76:main.c        ****         ByteCount = 0;
 170              		.loc 1 76 0
 171 0038 1A71     		strb	r2, [r3, #4]
 172              	.L11:
  77:main.c        ****     }
  78:main.c        ****     ByteCounter_ReadStatusRegister();
 173              		.loc 1 78 0
 174 003a FFF7FEFF 		bl	ByteCounter_ReadStatusRegister
 175              	.LVL10:
 176 003e 08BD     		pop	{r3, pc}
 177              	.L16:
 178              		.align	2
 179              	.L15:
 180 0040 00000000 		.word	.LANCHOR0
 181 0044 00000000 		.word	ReceivedBuffer
 182 0048 00000000 		.word	Command_Packet
 183              		.cfi_endproc
 184              	.LFE65:
 185              		.size	CommandReceived, .-CommandReceived
 186              		.global	__aeabi_ui2d
 187              		.global	__aeabi_dadd
 188              		.section	.text.main,"ax",%progbits
 189              		.align	2
 190              		.global	main
 191              		.thumb
 192              		.thumb_func
 193              		.type	main, %function
 194              	main:
 195              	.LFB66:
  79:main.c        ****     //LEDDrive_Write(0);
  80:main.c        **** }
  81:main.c        **** 
  82:main.c        **** int main(void)
  83:main.c        **** {
 196              		.loc 1 83 0
 197              		.cfi_startproc
 198              		@ args = 0, pretend = 0, frame = 0
 199              		@ frame_needed = 0, uses_anonymous_args = 0
 200 0000 2DE9F843 		push	{r3, r4, r5, r6, r7, r8, r9, lr}
ARM GAS  C:\Users\shawn\AppData\Local\Temp\ccg4QlZ1.s 			page 6


 201              		.cfi_def_cfa_offset 32
 202              		.cfi_offset 3, -32
 203              		.cfi_offset 4, -28
 204              		.cfi_offset 5, -24
 205              		.cfi_offset 6, -20
 206              		.cfi_offset 7, -16
 207              		.cfi_offset 8, -12
 208              		.cfi_offset 9, -8
 209              		.cfi_offset 14, -4
  84:main.c        ****     uint8 i;
  85:main.c        ****     
  86:main.c        ****     Timer_1_Start();
 210              		.loc 1 86 0
 211 0004 FFF7FEFF 		bl	Timer_1_Start
 212              	.LVL11:
  87:main.c        ****     TimerInterrupt_Start();
 213              		.loc 1 87 0
 214 0008 FFF7FEFF 		bl	TimerInterrupt_Start
 215              	.LVL12:
  88:main.c        ****     TimerInterrupt_StartEx(TimerInterrupt);
 216              		.loc 1 88 0
 217 000c 5248     		ldr	r0, .L31+16
 218 000e FFF7FEFF 		bl	TimerInterrupt_StartEx
 219              	.LVL13:
  89:main.c        ****     TimerInterrupt_Enable();
 220              		.loc 1 89 0
 221 0012 FFF7FEFF 		bl	TimerInterrupt_Enable
 222              	.LVL14:
  90:main.c        ****     
  91:main.c        ****     UARTReset_Write(0);
 223              		.loc 1 91 0
 224 0016 0020     		movs	r0, #0
 225 0018 FFF7FEFF 		bl	UARTReset_Write
 226              	.LVL15:
  92:main.c        ****     ByteCountReset_Write(0);
 227              		.loc 1 92 0
 228 001c 0020     		movs	r0, #0
 229 001e FFF7FEFF 		bl	ByteCountReset_Write
 230              	.LVL16:
  93:main.c        ****     
  94:main.c        ****     UART1_Start();
 231              		.loc 1 94 0
 232 0022 FFF7FEFF 		bl	UART1_Start
 233              	.LVL17:
  95:main.c        ****     
  96:main.c        ****     ByteCounter_Start();
 234              		.loc 1 96 0
 235 0026 FFF7FEFF 		bl	ByteCounter_Start
 236              	.LVL18:
  97:main.c        ****     ByteCounter_Enable();
 237              		.loc 1 97 0
 238 002a FFF7FEFF 		bl	ByteCounter_Enable
 239              	.LVL19:
  98:main.c        ****     ByteCounter_SetInterruptMode(ByteCounter_STATUS_CMP_INT_EN_MASK);
 240              		.loc 1 98 0
 241 002e 0120     		movs	r0, #1
 242 0030 FFF7FEFF 		bl	ByteCounter_SetInterruptMode
ARM GAS  C:\Users\shawn\AppData\Local\Temp\ccg4QlZ1.s 			page 7


 243              	.LVL20:
  99:main.c        ****        
 100:main.c        ****     ByteReceived_Start();
 244              		.loc 1 100 0
 245 0034 FFF7FEFF 		bl	ByteReceived_Start
 246              	.LVL21:
 101:main.c        ****     ByteReceived_StartEx(ByteReceived);
 247              		.loc 1 101 0
 248 0038 4848     		ldr	r0, .L31+20
 249 003a FFF7FEFF 		bl	ByteReceived_StartEx
 250              	.LVL22:
 102:main.c        ****     ByteReceived_Enable();
 251              		.loc 1 102 0
 252 003e FFF7FEFF 		bl	ByteReceived_Enable
 253              	.LVL23:
 103:main.c        ****     
 104:main.c        ****     CommandReceived_Start();
 254              		.loc 1 104 0
 255 0042 FFF7FEFF 		bl	CommandReceived_Start
 256              	.LVL24:
 105:main.c        ****     CommandReceived_StartEx(CommandReceived);
 257              		.loc 1 105 0
 258 0046 4648     		ldr	r0, .L31+24
 259 0048 FFF7FEFF 		bl	CommandReceived_StartEx
 260              	.LVL25:
 106:main.c        ****     CommandReceived_Enable();
 261              		.loc 1 106 0
 262 004c FFF7FEFF 		bl	CommandReceived_Enable
 263              	.LVL26:
 107:main.c        ****     
 108:main.c        ****     CyGlobalIntEnable; //Enable global interrupts
 264              		.loc 1 108 0
 265              		.syntax unified
 266              	@ 108 "main.c" 1
 267 0050 62B6     		CPSIE   i
 268              	@ 0 "" 2
 269              	.LVL27:
 109:main.c        **** 
 110:main.c        ****     // Initialize flags
 111:main.c        ****     uint8 ActiveFlag = FALSE;
 270              		.loc 1 111 0
 271              		.thumb
 272              		.syntax unified
 273 0052 0024     		movs	r4, #0
 274              	.LVL28:
 275              	.L18:
 112:main.c        ****     uint8 InputFlag = FALSE;
 113:main.c        ****     uint8 MeasFlag = FALSE;
 114:main.c        ****     
 115:main.c        ****     for(;;)
 116:main.c        ****     {        
 117:main.c        ****         if(CommandReady)
 276              		.loc 1 117 0
 277 0054 434B     		ldr	r3, .L31+28
 278 0056 DB79     		ldrb	r3, [r3, #7]	@ zero_extendqisi2
 279 0058 002B     		cmp	r3, #0
 280 005a FBD0     		beq	.L18
ARM GAS  C:\Users\shawn\AppData\Local\Temp\ccg4QlZ1.s 			page 8


 118:main.c        ****         {
 119:main.c        ****             switch(Command_Packet.command)
 281              		.loc 1 119 0
 282 005c 424B     		ldr	r3, .L31+32
 283 005e 5A78     		ldrb	r2, [r3, #1]	@ zero_extendqisi2
 284 0060 531E     		subs	r3, r2, #1
 285 0062 032B     		cmp	r3, #3
 286 0064 68D8     		bhi	.L19
 287 0066 DFE803F0 		tbb	[pc, r3]
 288              	.L21:
 289 006a 02       		.byte	(.L20-.L21)/2
 290 006b 1D       		.byte	(.L22-.L21)/2
 291 006c 25       		.byte	(.L23-.L21)/2
 292 006d 64       		.byte	(.L24-.L21)/2
 293              		.p2align 1
 294              	.L20:
 120:main.c        ****             {
 121:main.c        ****                 case 1:
 122:main.c        ****                     // Relay bytes back to Python (for testing)
 123:main.c        ****                     Transmit_Packet.command = Command_Packet.command;
 295              		.loc 1 123 0
 296 006e 3F49     		ldr	r1, .L31+36
 297 0070 4A70     		strb	r2, [r1, #1]
 124:main.c        ****                     TransmitBuffer[1] = Transmit_Packet.command;
 298              		.loc 1 124 0
 299 0072 3F4B     		ldr	r3, .L31+40
 300 0074 5A70     		strb	r2, [r3, #1]
 125:main.c        ****                     Transmit_Packet.packet_size = Command_Packet.packet_size;
 301              		.loc 1 125 0
 302 0076 3C4A     		ldr	r2, .L31+32
 303 0078 1578     		ldrb	r5, [r2]	@ zero_extendqisi2
 304 007a 0D70     		strb	r5, [r1]
 126:main.c        ****                     TransmitBuffer[0] = Transmit_Packet.packet_size;
 305              		.loc 1 126 0
 306 007c 1D70     		strb	r5, [r3]
 307              	.LVL29:
 127:main.c        ****                     for(i = 0; i < Transmit_Packet.packet_size; ++i)
 308              		.loc 1 127 0
 309 007e 0023     		movs	r3, #0
 310 0080 0AE0     		b	.L25
 311              	.LVL30:
 312              	.L26:
 128:main.c        ****                     {
 129:main.c        ****                         Transmit_Packet.buffer[i+2] = Command_Packet.buffer[i];
 313              		.loc 1 129 0 discriminator 3
 314 0082 991C     		adds	r1, r3, #2
 315 0084 384A     		ldr	r2, .L31+32
 316 0086 1A44     		add	r2, r2, r3
 317 0088 9078     		ldrb	r0, [r2, #2]	@ zero_extendqisi2
 318 008a 384A     		ldr	r2, .L31+36
 319 008c 0A44     		add	r2, r2, r1
 320 008e 9070     		strb	r0, [r2, #2]
 130:main.c        ****                         TransmitBuffer[i+2] = Transmit_Packet.buffer[i+2];
 321              		.loc 1 130 0 discriminator 3
 322 0090 374A     		ldr	r2, .L31+40
 323 0092 5054     		strb	r0, [r2, r1]
 127:main.c        ****                     for(i = 0; i < Transmit_Packet.packet_size; ++i)
ARM GAS  C:\Users\shawn\AppData\Local\Temp\ccg4QlZ1.s 			page 9


 324              		.loc 1 127 0 discriminator 3
 325 0094 0133     		adds	r3, r3, #1
 326              	.LVL31:
 327 0096 DBB2     		uxtb	r3, r3
 328              	.LVL32:
 329              	.L25:
 127:main.c        ****                     for(i = 0; i < Transmit_Packet.packet_size; ++i)
 330              		.loc 1 127 0 is_stmt 0 discriminator 1
 331 0098 AB42     		cmp	r3, r5
 332 009a F2D3     		bcc	.L26
 131:main.c        ****                     }
 132:main.c        ****                     CommandReady = 0;
 333              		.loc 1 132 0 is_stmt 1
 334 009c 0022     		movs	r2, #0
 335 009e 314B     		ldr	r3, .L31+28
 336              	.LVL33:
 337 00a0 DA71     		strb	r2, [r3, #7]
 133:main.c        ****                 break;
 338              		.loc 1 133 0
 339 00a2 49E0     		b	.L19
 340              	.L22:
 134:main.c        ****                 
 135:main.c        ****                 case 2:
 136:main.c        ****                     // Start timing for computation alongside Python
 137:main.c        ****                     TimeStart = Time;
 341              		.loc 1 137 0
 342 00a4 2F4B     		ldr	r3, .L31+28
 343 00a6 1968     		ldr	r1, [r3]
 344 00a8 324A     		ldr	r2, .L31+44
 345 00aa 1160     		str	r1, [r2]
 346              	.LVL34:
 138:main.c        ****                     ActiveFlag = TRUE;
 139:main.c        ****                     CommandReady = 0;
 347              		.loc 1 139 0
 348 00ac 0022     		movs	r2, #0
 349 00ae DA71     		strb	r2, [r3, #7]
 138:main.c        ****                     ActiveFlag = TRUE;
 350              		.loc 1 138 0
 351 00b0 0124     		movs	r4, #1
 140:main.c        ****                 break;
 352              		.loc 1 140 0
 353 00b2 41E0     		b	.L19
 354              	.LVL35:
 355              	.L23:
 141:main.c        ****                 
 142:main.c        ****                 case 3:
 143:main.c        ****                     LEDDrive_Write(1);
 356              		.loc 1 143 0
 357 00b4 0120     		movs	r0, #1
 358 00b6 FFF7FEFF 		bl	LEDDrive_Write
 359              	.LVL36:
 144:main.c        ****                     // Input requested
 145:main.c        ****                     if (ActiveFlag)
 360              		.loc 1 145 0
 361 00ba 002C     		cmp	r4, #0
 362 00bc 3CD0     		beq	.L19
 363              	.LBB2:
ARM GAS  C:\Users\shawn\AppData\Local\Temp\ccg4QlZ1.s 			page 10


 146:main.c        ****                     {   
 147:main.c        ****                         // Send two double inputs to Python
 148:main.c        ****                         Transmit_Packet.command = Command_Packet.command;
 364              		.loc 1 148 0
 365 00be 2A4B     		ldr	r3, .L31+32
 366 00c0 5A78     		ldrb	r2, [r3, #1]	@ zero_extendqisi2
 367 00c2 2A49     		ldr	r1, .L31+36
 368 00c4 4A70     		strb	r2, [r1, #1]
 149:main.c        ****                         TransmitBuffer[1] = Transmit_Packet.command;
 369              		.loc 1 149 0
 370 00c6 2A4B     		ldr	r3, .L31+40
 371 00c8 5A70     		strb	r2, [r3, #1]
 150:main.c        ****                         
 151:main.c        ****                         // Set packet size for sending two doubles
 152:main.c        ****                         Transmit_Packet.packet_size = 18;
 372              		.loc 1 152 0
 373 00ca 1222     		movs	r2, #18
 374 00cc 0A70     		strb	r2, [r1]
 153:main.c        ****                         TransmitBuffer[0] = Transmit_Packet.packet_size;
 375              		.loc 1 153 0
 376 00ce 1A70     		strb	r2, [r3]
 154:main.c        ****                         
 155:main.c        ****                         // Values of those doubles (will be LQG eventually)
 156:main.c        ****                         Input1 = 5.678 + (double) Time;
 377              		.loc 1 156 0
 378 00d0 244B     		ldr	r3, .L31+28
 379 00d2 1868     		ldr	r0, [r3]
 380 00d4 FFF7FEFF 		bl	__aeabi_ui2d
 381              	.LVL37:
 382 00d8 8046     		mov	r8, r0
 383 00da 8946     		mov	r9, r1
 384 00dc 1AA3     		adr	r3, .L31
 385 00de D3E90023 		ldrd	r2, [r3]
 386 00e2 FFF7FEFF 		bl	__aeabi_dadd
 387              	.LVL38:
 388 00e6 244E     		ldr	r6, .L31+48
 389 00e8 C6E90001 		strd	r0, [r6]
 157:main.c        ****                         Input2 = 9.7834594324234 + (double) Time;
 390              		.loc 1 157 0
 391 00ec 18A3     		adr	r3, .L31+8
 392 00ee D3E90023 		ldrd	r2, [r3]
 393 00f2 4046     		mov	r0, r8
 394 00f4 4946     		mov	r1, r9
 395 00f6 FFF7FEFF 		bl	__aeabi_dadd
 396              	.LVL39:
 397 00fa 204F     		ldr	r7, .L31+52
 398 00fc C7E90001 		strd	r0, [r7]
 399              	.LVL40:
 158:main.c        ****                         
 159:main.c        ****                         // Pointer declaration for sending doubles by byte
 160:main.c        ****                         uint8 *PtrInput1 = &Input1;
 161:main.c        ****                         uint8 *PtrInput2 = &Input2;
 162:main.c        ****                         
 163:main.c        ****                         /*
 164:main.c        ****                         Load bytes representing doubles into transmit buffer via
 165:main.c        ****                         iteration
 166:main.c        ****                         */
ARM GAS  C:\Users\shawn\AppData\Local\Temp\ccg4QlZ1.s 			page 11


 167:main.c        ****                         for (i=0; i < (Transmit_Packet.packet_size-2)/2; ++i)
 400              		.loc 1 167 0
 401 0100 0023     		movs	r3, #0
 402 0102 10E0     		b	.L27
 403              	.LVL41:
 404              	.L28:
 168:main.c        ****                         {
 169:main.c        ****                             Transmit_Packet.buffer[i+2] = *PtrInput1;
 405              		.loc 1 169 0 discriminator 3
 406 0104 991C     		adds	r1, r3, #2
 407 0106 16F8015B 		ldrb	r5, [r6], #1	@ zero_extendqisi2
 408              	.LVL42:
 409 010a 184A     		ldr	r2, .L31+36
 410 010c 5018     		adds	r0, r2, r1
 411 010e 8570     		strb	r5, [r0, #2]
 170:main.c        ****                             TransmitBuffer[i+2] = Transmit_Packet.buffer[i+2];
 412              		.loc 1 170 0 discriminator 3
 413 0110 1748     		ldr	r0, .L31+40
 414 0112 4554     		strb	r5, [r0, r1]
 415              	.LVL43:
 171:main.c        ****                             ++PtrInput1;
 172:main.c        ****                             
 173:main.c        ****                             Transmit_Packet.buffer[i+2+8] = *PtrInput2;
 416              		.loc 1 173 0 discriminator 3
 417 0114 03F10A01 		add	r1, r3, #10
 418 0118 17F8015B 		ldrb	r5, [r7], #1	@ zero_extendqisi2
 419              	.LVL44:
 420 011c 0A44     		add	r2, r2, r1
 421 011e 9570     		strb	r5, [r2, #2]
 174:main.c        ****                             TransmitBuffer[i+2+8] = Transmit_Packet.buffer[i+2+8];
 422              		.loc 1 174 0 discriminator 3
 423 0120 4554     		strb	r5, [r0, r1]
 424              	.LVL45:
 167:main.c        ****                         {
 425              		.loc 1 167 0 discriminator 3
 426 0122 0133     		adds	r3, r3, #1
 427              	.LVL46:
 428 0124 DBB2     		uxtb	r3, r3
 429              	.LVL47:
 430              	.L27:
 167:main.c        ****                         {
 431              		.loc 1 167 0 is_stmt 0 discriminator 1
 432 0126 072B     		cmp	r3, #7
 433 0128 ECDD     		ble	.L28
 175:main.c        ****                             ++PtrInput2;
 176:main.c        ****                         }
 177:main.c        ****                         CommandReady = 0;
 434              		.loc 1 177 0 is_stmt 1
 435 012a 0022     		movs	r2, #0
 436 012c 0D4B     		ldr	r3, .L31+28
 437              	.LVL48:
 438 012e DA71     		strb	r2, [r3, #7]
 439 0130 02E0     		b	.L19
 440              	.LVL49:
 441              	.L24:
 442              	.LBE2:
 178:main.c        ****                     }
ARM GAS  C:\Users\shawn\AppData\Local\Temp\ccg4QlZ1.s 			page 12


 179:main.c        ****                 break;
 180:main.c        ****                 
 181:main.c        ****                 case 4:
 182:main.c        ****                     // Incoming measurement data
 183:main.c        ****                     if (ActiveFlag)
 184:main.c        ****                     {
 185:main.c        ****                     }
 186:main.c        ****                     CommandReady = 0;
 443              		.loc 1 186 0
 444 0132 0022     		movs	r2, #0
 445 0134 0B4B     		ldr	r3, .L31+28
 446 0136 DA71     		strb	r2, [r3, #7]
 447              	.LVL50:
 448              	.L19:
 187:main.c        ****                 break;
 188:main.c        ****                 
 189:main.c        ****                 case 5:
 190:main.c        ****                     // Store LQG matricies
 191:main.c        ****                 break;
 192:main.c        ****                 
 193:main.c        ****                 default:
 194:main.c        ****                 break;
 195:main.c        ****             }
 196:main.c        ****             UART1_PutArray(TransmitBuffer,Transmit_Packet.packet_size);
 449              		.loc 1 196 0
 450 0138 0C4B     		ldr	r3, .L31+36
 451 013a 1978     		ldrb	r1, [r3]	@ zero_extendqisi2
 452 013c 0C48     		ldr	r0, .L31+40
 453 013e FFF7FEFF 		bl	UART1_PutArray
 454              	.LVL51:
 455 0142 87E7     		b	.L18
 456              	.L32:
 457 0144 AFF30080 		.align	3
 458              	.L31:
 459 0148 83C0CAA1 		.word	-1580547965
 460 014c 45B61640 		.word	1075230277
 461 0150 A1004098 		.word	-1740635999
 462 0154 21912340 		.word	1076072737
 463 0158 00000000 		.word	TimerInterrupt
 464 015c 00000000 		.word	ByteReceived
 465 0160 00000000 		.word	CommandReceived
 466 0164 00000000 		.word	.LANCHOR0
 467 0168 00000000 		.word	Command_Packet
 468 016c 00000000 		.word	Transmit_Packet
 469 0170 00000000 		.word	TransmitBuffer
 470 0174 00000000 		.word	TimeStart
 471 0178 00000000 		.word	Input1
 472 017c 00000000 		.word	Input2
 473              		.cfi_endproc
 474              	.LFE66:
 475              		.size	main, .-main
 476              		.comm	Transmit_Packet,66,4
 477              		.comm	Command_Packet,66,4
 478              		.comm	Input2,8,8
 479              		.comm	Input1,8,8
 480              		.comm	TimeStart,4,4
 481              		.global	Time
ARM GAS  C:\Users\shawn\AppData\Local\Temp\ccg4QlZ1.s 			page 13


 482              		.comm	TransmitBuffer,66,4
 483              		.comm	ReceivedBuffer,66,4
 484              		.comm	Status,1,1
 485              		.global	Count
 486              		.global	CommandReady
 487              		.global	firstbyte
 488              		.global	ByteCount
 489              		.bss
 490              		.align	2
 491              		.set	.LANCHOR0,. + 0
 492              		.type	Time, %object
 493              		.size	Time, 4
 494              	Time:
 495 0000 00000000 		.space	4
 496              		.type	ByteCount, %object
 497              		.size	ByteCount, 1
 498              	ByteCount:
 499 0004 00       		.space	1
 500              		.type	firstbyte, %object
 501              		.size	firstbyte, 1
 502              	firstbyte:
 503 0005 00       		.space	1
 504              		.type	Count, %object
 505              		.size	Count, 1
 506              	Count:
 507 0006 00       		.space	1
 508              		.type	CommandReady, %object
 509              		.size	CommandReady, 1
 510              	CommandReady:
 511 0007 00       		.space	1
 512              		.text
 513              	.Letext0:
 514              		.file 2 "c:\\program files (x86)\\cypress\\psoc creator\\4.2\\psoc creator\\import\\gnu\\arm\\5.4.
 515              		.file 3 "c:\\program files (x86)\\cypress\\psoc creator\\4.2\\psoc creator\\import\\gnu\\arm\\5.4.
 516              		.file 4 "Generated_Source\\PSoC5/cytypes.h"
 517              		.file 5 "Generated_Source\\PSoC5/core_cm3.h"
 518              		.file 6 "Generated_Source\\PSoC5/Timer_1.h"
 519              		.file 7 "Generated_Source\\PSoC5/UART1.h"
 520              		.file 8 "Generated_Source\\PSoC5/ByteCounter.h"
 521              		.file 9 "Generated_Source\\PSoC5/TimerInterrupt.h"
 522              		.file 10 "Generated_Source\\PSoC5/UARTReset.h"
 523              		.file 11 "Generated_Source\\PSoC5/ByteCountReset.h"
 524              		.file 12 "Generated_Source\\PSoC5/ByteReceived.h"
 525              		.file 13 "Generated_Source\\PSoC5/CommandReceived.h"
 526              		.file 14 "Generated_Source\\PSoC5/LEDDrive.h"