ARM GAS  C:\Users\GEORGE~1\AppData\Local\Temp\cckyYmkV.s 			page 1


   1              		.syntax unified
   2              		.cpu cortex-m3
   3              		.fpu softvfp
   4              		.eabi_attribute 20, 1
   5              		.eabi_attribute 21, 1
   6              		.eabi_attribute 23, 3
   7              		.eabi_attribute 24, 1
   8              		.eabi_attribute 25, 1
   9              		.eabi_attribute 26, 1
  10              		.eabi_attribute 30, 1
  11              		.eabi_attribute 34, 1
  12              		.eabi_attribute 18, 4
  13              		.thumb
  14              		.syntax unified
  15              		.file	"main.c"
  16              		.text
  17              	.Ltext0:
  18              		.cfi_sections	.debug_frame
  19              		.section	.text.isr_1,"ax",%progbits
  20              		.align	2
  21              		.global	isr_1
  22              		.thumb
  23              		.thumb_func
  24              		.type	isr_1, %function
  25              	isr_1:
  26              	.LFB63:
  27              		.file 1 "main.c"
   1:main.c        **** /* ========================================
   2:main.c        ****  *
   3:main.c        ****  * Copyright YOUR COMPANY, THE YEAR
   4:main.c        ****  * All Rights Reserved
   5:main.c        ****  * UNPUBLISHED, LICENSED SOFTWARE.
   6:main.c        ****  *
   7:main.c        ****  * CONFIDENTIAL AND PROPRIETARY INFORMATION
   8:main.c        ****  * WHICH IS THE PROPERTY OF your company.
   9:main.c        ****  *
  10:main.c        ****  * ========================================
  11:main.c        **** */
  12:main.c        **** #include "project.h"
  13:main.c        **** 
  14:main.c        **** uint32 distance;
  15:main.c        **** 
  16:main.c        **** uint16 PWMvalue;
  17:main.c        **** 
  18:main.c        **** CY_ISR(isr_1)
  19:main.c        **** {
  28              		.loc 1 19 0
  29              		.cfi_startproc
  30              		@ args = 0, pretend = 0, frame = 0
  31              		@ frame_needed = 0, uses_anonymous_args = 0
  32 0000 08B5     		push	{r3, lr}
  33              		.cfi_def_cfa_offset 8
  34              		.cfi_offset 3, -8
  35              		.cfi_offset 14, -4
  20:main.c        ****     CyDelayUs(10);
  36              		.loc 1 20 0
  37 0002 0A20     		movs	r0, #10
ARM GAS  C:\Users\GEORGE~1\AppData\Local\Temp\cckyYmkV.s 			page 2


  38 0004 FFF7FEFF 		bl	CyDelayUs
  39              	.LVL0:
  40 0008 08BD     		pop	{r3, pc}
  41              		.cfi_endproc
  42              	.LFE63:
  43              		.size	isr_1, .-isr_1
  44 000a 00BF     		.section	.text.isr_2,"ax",%progbits
  45              		.align	2
  46              		.global	isr_2
  47              		.thumb
  48              		.thumb_func
  49              		.type	isr_2, %function
  50              	isr_2:
  51              	.LFB64:
  21:main.c        **** }
  22:main.c        **** 
  23:main.c        **** CY_ISR(isr_2)
  24:main.c        **** {
  52              		.loc 1 24 0
  53              		.cfi_startproc
  54              		@ args = 0, pretend = 0, frame = 0
  55              		@ frame_needed = 0, uses_anonymous_args = 0
  56 0000 08B5     		push	{r3, lr}
  57              		.cfi_def_cfa_offset 8
  58              		.cfi_offset 3, -8
  59              		.cfi_offset 14, -4
  25:main.c        ****     CyDelayUs(10);
  60              		.loc 1 25 0
  61 0002 0A20     		movs	r0, #10
  62 0004 FFF7FEFF 		bl	CyDelayUs
  63              	.LVL1:
  26:main.c        ****     
  27:main.c        ****     distance = Timer_1_ReadCounter();
  64              		.loc 1 27 0
  65 0008 FFF7FEFF 		bl	Timer_1_ReadCounter
  66              	.LVL2:
  67 000c 054B     		ldr	r3, .L5
  68 000e 1860     		str	r0, [r3]
  28:main.c        **** 
  29:main.c        ****     TimerReset_Write(1);
  69              		.loc 1 29 0
  70 0010 0120     		movs	r0, #1
  71 0012 FFF7FEFF 		bl	TimerReset_Write
  72              	.LVL3:
  30:main.c        ****     CyDelayUs(50);
  73              		.loc 1 30 0
  74 0016 3220     		movs	r0, #50
  75 0018 FFF7FEFF 		bl	CyDelayUs
  76              	.LVL4:
  31:main.c        ****     TimerReset_Write(0);
  77              		.loc 1 31 0
  78 001c 0020     		movs	r0, #0
  79 001e FFF7FEFF 		bl	TimerReset_Write
  80              	.LVL5:
  81 0022 08BD     		pop	{r3, pc}
  82              	.L6:
  83              		.align	2
ARM GAS  C:\Users\GEORGE~1\AppData\Local\Temp\cckyYmkV.s 			page 3


  84              	.L5:
  85 0024 00000000 		.word	distance
  86              		.cfi_endproc
  87              	.LFE64:
  88              		.size	isr_2, .-isr_2
  89              		.section	.text.main,"ax",%progbits
  90              		.align	2
  91              		.global	main
  92              		.thumb
  93              		.thumb_func
  94              		.type	main, %function
  95              	main:
  96              	.LFB65:
  32:main.c        **** }
  33:main.c        **** 
  34:main.c        **** int main(void)
  35:main.c        **** {
  97              		.loc 1 35 0
  98              		.cfi_startproc
  99              		@ Volatile: function does not return.
 100              		@ args = 0, pretend = 0, frame = 0
 101              		@ frame_needed = 0, uses_anonymous_args = 0
 102 0000 08B5     		push	{r3, lr}
 103              		.cfi_def_cfa_offset 8
 104              		.cfi_offset 3, -8
 105              		.cfi_offset 14, -4
  36:main.c        ****     PWM_1_Start();
 106              		.loc 1 36 0
 107 0002 FFF7FEFF 		bl	PWM_1_Start
 108              	.LVL6:
  37:main.c        ****     Timer_1_Start();
 109              		.loc 1 37 0
 110 0006 FFF7FEFF 		bl	Timer_1_Start
 111              	.LVL7:
  38:main.c        ****     
  39:main.c        ****     isr_1_Start();
 112              		.loc 1 39 0
 113 000a FFF7FEFF 		bl	isr_1_Start
 114              	.LVL8:
  40:main.c        ****     isr_1_StartEx(isr_1);
 115              		.loc 1 40 0
 116 000e 1048     		ldr	r0, .L10
 117 0010 FFF7FEFF 		bl	isr_1_StartEx
 118              	.LVL9:
  41:main.c        ****     isr_1_Enable();
 119              		.loc 1 41 0
 120 0014 FFF7FEFF 		bl	isr_1_Enable
 121              	.LVL10:
  42:main.c        ****     
  43:main.c        ****     isr_2_Start();
 122              		.loc 1 43 0
 123 0018 FFF7FEFF 		bl	isr_2_Start
 124              	.LVL11:
  44:main.c        ****     isr_2_StartEx(isr_2);
 125              		.loc 1 44 0
 126 001c 0D48     		ldr	r0, .L10+4
 127 001e FFF7FEFF 		bl	isr_2_StartEx
ARM GAS  C:\Users\GEORGE~1\AppData\Local\Temp\cckyYmkV.s 			page 4


 128              	.LVL12:
  45:main.c        ****     isr_2_Enable();
 129              		.loc 1 45 0
 130 0022 FFF7FEFF 		bl	isr_2_Enable
 131              	.LVL13:
  46:main.c        ****     
  47:main.c        ****     Timer_1_EnableTrigger();
 132              		.loc 1 47 0
 133 0026 FFF7FEFF 		bl	Timer_1_EnableTrigger
 134              	.LVL14:
  48:main.c        ****     
  49:main.c        ****     CyGlobalIntEnable; /* Enable global interrupts. */
 135              		.loc 1 49 0
 136              		.syntax unified
 137              	@ 49 "main.c" 1
 138 002a 62B6     		CPSIE   i
 139              	@ 0 "" 2
  50:main.c        **** 
  51:main.c        ****     /* Place your initialization/startup code here (e.g. MyInst_Start()) */
  52:main.c        **** 
  53:main.c        ****     PWMvalue = 0;
 140              		.loc 1 53 0
 141              		.thumb
 142              		.syntax unified
 143 002c 0022     		movs	r2, #0
 144 002e 0A4B     		ldr	r3, .L10+8
 145 0030 1A80     		strh	r2, [r3]	@ movhi
 146              	.L8:
  54:main.c        ****     for(;;)
  55:main.c        ****     {
  56:main.c        ****         /* Place your application code here. */
  57:main.c        ****         
  58:main.c        ****         PWMvalue = (PWMvalue+1024);
 147              		.loc 1 58 0 discriminator 1
 148 0032 094B     		ldr	r3, .L10+8
 149 0034 1888     		ldrh	r0, [r3]
 150 0036 00F58060 		add	r0, r0, #1024
 151 003a 80B2     		uxth	r0, r0
 152 003c 1880     		strh	r0, [r3]	@ movhi
  59:main.c        ****         
  60:main.c        ****         PWM_1_WriteCompare(PWMvalue/2 + 2048);
 153              		.loc 1 60 0 discriminator 1
 154 003e 4008     		lsrs	r0, r0, #1
 155 0040 00F50060 		add	r0, r0, #2048
 156 0044 FFF7FEFF 		bl	PWM_1_WriteCompare
 157              	.LVL15:
  61:main.c        ****         
  62:main.c        ****         CyDelay(100);
 158              		.loc 1 62 0 discriminator 1
 159 0048 6420     		movs	r0, #100
 160 004a FFF7FEFF 		bl	CyDelay
 161              	.LVL16:
 162 004e F0E7     		b	.L8
 163              	.L11:
 164              		.align	2
 165              	.L10:
 166 0050 00000000 		.word	isr_1
ARM GAS  C:\Users\GEORGE~1\AppData\Local\Temp\cckyYmkV.s 			page 5


 167 0054 00000000 		.word	isr_2
 168 0058 00000000 		.word	PWMvalue
 169              		.cfi_endproc
 170              	.LFE65:
 171              		.size	main, .-main
 172              		.comm	PWMvalue,2,2
 173              		.comm	distance,4,4
 174              		.text
 175              	.Letext0:
 176              		.file 2 "c:\\program files (x86)\\cypress\\psoc creator\\4.2\\psoc creator\\import\\gnu\\arm\\5.4.
 177              		.file 3 "c:\\program files (x86)\\cypress\\psoc creator\\4.2\\psoc creator\\import\\gnu\\arm\\5.4.
 178              		.file 4 "Generated_Source\\PSoC5/cytypes.h"
 179              		.file 5 "Generated_Source\\PSoC5/core_cm3.h"
 180              		.file 6 "Generated_Source\\PSoC5/CyLib.h"
 181              		.file 7 "Generated_Source\\PSoC5/Timer_1.h"
 182              		.file 8 "Generated_Source\\PSoC5/TimerReset.h"
 183              		.file 9 "Generated_Source\\PSoC5/PWM_1.h"
 184              		.file 10 "Generated_Source\\PSoC5/isr_1.h"
 185              		.file 11 "Generated_Source\\PSoC5/isr_2.h"