ARM GAS  C:\Users\GEORGE~1\AppData\Local\Temp\cchOrsqU.s 			page 1


   1              		.syntax unified
   2              		.cpu cortex-m3
   3              		.fpu softvfp
   4              		.eabi_attribute 20, 1
   5              		.eabi_attribute 21, 1
   6              		.eabi_attribute 23, 3
   7              		.eabi_attribute 24, 1
   8              		.eabi_attribute 25, 1
   9              		.eabi_attribute 26, 1
  10              		.eabi_attribute 30, 1
  11              		.eabi_attribute 34, 1
  12              		.eabi_attribute 18, 4
  13              		.thumb
  14              		.syntax unified
  15              		.file	"main.c"
  16              		.text
  17              	.Ltext0:
  18              		.cfi_sections	.debug_frame
  19              		.section	.text.SampleInterrupt,"ax",%progbits
  20              		.align	2
  21              		.global	SampleInterrupt
  22              		.thumb
  23              		.thumb_func
  24              		.type	SampleInterrupt, %function
  25              	SampleInterrupt:
  26              	.LFB63:
  27              		.file 1 "main.c"
   1:main.c        **** /* ========================================
   2:main.c        ****  *
   3:main.c        ****  * Copyright YOUR COMPANY, THE YEAR
   4:main.c        ****  * All Rights Reserved
   5:main.c        ****  * UNPUBLISHED, LICENSED SOFTWARE.
   6:main.c        ****  *
   7:main.c        ****  * CONFIDENTIAL AND PROPRIETARY INFORMATION
   8:main.c        ****  * WHICH IS THE PROPERTY OF your company.
   9:main.c        ****  *
  10:main.c        ****  * ========================================
  11:main.c        **** */
  12:main.c        **** #include "project.h"
  13:main.c        **** 
  14:main.c        **** uint8 y[2];
  15:main.c        **** 
  16:main.c        **** int16 Force = 0;
  17:main.c        **** 
  18:main.c        **** CY_ISR(SampleInterrupt)
  19:main.c        **** {
  28              		.loc 1 19 0
  29              		.cfi_startproc
  30              		@ args = 0, pretend = 0, frame = 0
  31              		@ frame_needed = 0, uses_anonymous_args = 0
  32 0000 10B5     		push	{r4, lr}
  33              		.cfi_def_cfa_offset 8
  34              		.cfi_offset 4, -8
  35              		.cfi_offset 14, -4
  20:main.c        ****     PulseTrigger_Write(0);
  36              		.loc 1 20 0
  37 0002 0020     		movs	r0, #0
ARM GAS  C:\Users\GEORGE~1\AppData\Local\Temp\cchOrsqU.s 			page 2


  38 0004 FFF7FEFF 		bl	PulseTrigger_Write
  39              	.LVL0:
  21:main.c        ****     ModelOutput_SetValue(255+y[0]);
  40              		.loc 1 21 0
  41 0008 104C     		ldr	r4, .L5
  42 000a 2078     		ldrb	r0, [r4]	@ zero_extendqisi2
  43 000c 0138     		subs	r0, r0, #1
  44 000e C0B2     		uxtb	r0, r0
  45 0010 FFF7FEFF 		bl	ModelOutput_SetValue
  46              	.LVL1:
  22:main.c        ****     UltraSonic_WriteCompare(255+y[0]);
  47              		.loc 1 22 0
  48 0014 2078     		ldrb	r0, [r4]	@ zero_extendqisi2
  49 0016 FF30     		adds	r0, r0, #255
  50 0018 FFF7FEFF 		bl	UltraSonic_WriteCompare
  51              	.LVL2:
  23:main.c        ****     Force = ForceInput_Read();
  52              		.loc 1 23 0
  53 001c FFF7FEFF 		bl	ForceInput_Read
  54              	.LVL3:
  55 0020 00B2     		sxth	r0, r0
  24:main.c        ****     
  25:main.c        ****     if(Force == 1)
  56              		.loc 1 25 0
  57 0022 0128     		cmp	r0, #1
  58 0024 03D1     		bne	.L2
  26:main.c        ****     {
  27:main.c        ****         Force = 3;
  59              		.loc 1 27 0
  60 0026 0322     		movs	r2, #3
  61 0028 094B     		ldr	r3, .L5+4
  62 002a 1A80     		strh	r2, [r3]	@ movhi
  63 002c 03E0     		b	.L3
  64              	.L2:
  28:main.c        ****     }
  29:main.c        ****     else
  30:main.c        ****     {
  31:main.c        ****         Force = -3;
  65              		.loc 1 31 0
  66 002e 4FF6FD72 		movw	r2, #65533
  67 0032 074B     		ldr	r3, .L5+4
  68 0034 1A80     		strh	r2, [r3]	@ movhi
  69              	.L3:
  32:main.c        ****     }
  33:main.c        ****     
  34:main.c        ****     y[1] = y[0] + Force;
  70              		.loc 1 34 0
  71 0036 054A     		ldr	r2, .L5
  72 0038 1178     		ldrb	r1, [r2]	@ zero_extendqisi2
  73 003a 054B     		ldr	r3, .L5+4
  74 003c 1B78     		ldrb	r3, [r3]	@ zero_extendqisi2
  75 003e 0B44     		add	r3, r3, r1
  76 0040 DBB2     		uxtb	r3, r3
  77 0042 5370     		strb	r3, [r2, #1]
  35:main.c        ****     y[0] = y[1];
  78              		.loc 1 35 0
  79 0044 1370     		strb	r3, [r2]
ARM GAS  C:\Users\GEORGE~1\AppData\Local\Temp\cchOrsqU.s 			page 3


  36:main.c        ****     
  37:main.c        ****     SampleTime_ReadStatusRegister();
  80              		.loc 1 37 0
  81 0046 FFF7FEFF 		bl	SampleTime_ReadStatusRegister
  82              	.LVL4:
  83 004a 10BD     		pop	{r4, pc}
  84              	.L6:
  85              		.align	2
  86              	.L5:
  87 004c 00000000 		.word	y
  88 0050 00000000 		.word	.LANCHOR0
  89              		.cfi_endproc
  90              	.LFE63:
  91              		.size	SampleInterrupt, .-SampleInterrupt
  92              		.section	.text.main,"ax",%progbits
  93              		.align	2
  94              		.global	main
  95              		.thumb
  96              		.thumb_func
  97              		.type	main, %function
  98              	main:
  99              	.LFB64:
  38:main.c        **** }
  39:main.c        **** 
  40:main.c        **** int main(void)
  41:main.c        **** {
 100              		.loc 1 41 0
 101              		.cfi_startproc
 102              		@ Volatile: function does not return.
 103              		@ args = 0, pretend = 0, frame = 0
 104              		@ frame_needed = 0, uses_anonymous_args = 0
 105 0000 08B5     		push	{r3, lr}
 106              		.cfi_def_cfa_offset 8
 107              		.cfi_offset 3, -8
 108              		.cfi_offset 14, -4
  42:main.c        ****     simulatedForce_Start();
 109              		.loc 1 42 0
 110 0002 FFF7FEFF 		bl	simulatedForce_Start
 111              	.LVL5:
  43:main.c        ****     
  44:main.c        ****     ModelOutput_Start();
 112              		.loc 1 44 0
 113 0006 FFF7FEFF 		bl	ModelOutput_Start
 114              	.LVL6:
  45:main.c        ****     ModelOutput_SetValue(128);
 115              		.loc 1 45 0
 116 000a 8020     		movs	r0, #128
 117 000c FFF7FEFF 		bl	ModelOutput_SetValue
 118              	.LVL7:
  46:main.c        ****     
  47:main.c        ****     UltraSonic_Start();
 119              		.loc 1 47 0
 120 0010 FFF7FEFF 		bl	UltraSonic_Start
 121              	.LVL8:
  48:main.c        ****     UltraSonic_WriteCompare(0);
 122              		.loc 1 48 0
 123 0014 0020     		movs	r0, #0
ARM GAS  C:\Users\GEORGE~1\AppData\Local\Temp\cchOrsqU.s 			page 4


 124 0016 FFF7FEFF 		bl	UltraSonic_WriteCompare
 125              	.LVL9:
  49:main.c        ****     
  50:main.c        ****     PulseTrigger_Write(1);
 126              		.loc 1 50 0
 127 001a 0120     		movs	r0, #1
 128 001c FFF7FEFF 		bl	PulseTrigger_Write
 129              	.LVL10:
  51:main.c        ****     
  52:main.c        ****     
  53:main.c        ****     SampleInterrupt_Start();
 130              		.loc 1 53 0
 131 0020 FFF7FEFF 		bl	SampleInterrupt_Start
 132              	.LVL11:
  54:main.c        ****     SampleInterrupt_Disable();
 133              		.loc 1 54 0
 134 0024 FFF7FEFF 		bl	SampleInterrupt_Disable
 135              	.LVL12:
  55:main.c        ****     
  56:main.c        ****     SampleInterrupt_StartEx(SampleInterrupt);
 136              		.loc 1 56 0
 137 0028 0348     		ldr	r0, .L10
 138 002a FFF7FEFF 		bl	SampleInterrupt_StartEx
 139              	.LVL13:
  57:main.c        ****     
  58:main.c        ****     SampleTime_Start();
 140              		.loc 1 58 0
 141 002e FFF7FEFF 		bl	SampleTime_Start
 142              	.LVL14:
  59:main.c        ****     
  60:main.c        ****     CyGlobalIntEnable; /* Enable global interrupts. */
 143              		.loc 1 60 0
 144              		.syntax unified
 145              	@ 60 "main.c" 1
 146 0032 62B6     		CPSIE   i
 147              	@ 0 "" 2
 148              		.thumb
 149              		.syntax unified
 150              	.L8:
 151 0034 FEE7     		b	.L8
 152              	.L11:
 153 0036 00BF     		.align	2
 154              	.L10:
 155 0038 00000000 		.word	SampleInterrupt
 156              		.cfi_endproc
 157              	.LFE64:
 158              		.size	main, .-main
 159              		.global	Force
 160              		.comm	y,2,4
 161              		.bss
 162              		.align	1
 163              		.set	.LANCHOR0,. + 0
 164              		.type	Force, %object
 165              		.size	Force, 2
 166              	Force:
 167 0000 0000     		.space	2
 168              		.text
ARM GAS  C:\Users\GEORGE~1\AppData\Local\Temp\cchOrsqU.s 			page 5


 169              	.Letext0:
 170              		.file 2 "c:\\program files (x86)\\cypress\\psoc creator\\4.2\\psoc creator\\import\\gnu\\arm\\5.4.
 171              		.file 3 "c:\\program files (x86)\\cypress\\psoc creator\\4.2\\psoc creator\\import\\gnu\\arm\\5.4.
 172              		.file 4 "Generated_Source\\PSoC5/cytypes.h"
 173              		.file 5 "Generated_Source\\PSoC5/core_cm3.h"
 174              		.file 6 "Generated_Source\\PSoC5/PulseTrigger.h"
 175              		.file 7 "Generated_Source\\PSoC5/ModelOutput.h"
 176              		.file 8 "Generated_Source\\PSoC5/UltraSonic.h"
 177              		.file 9 "Generated_Source\\PSoC5/ForceInput.h"
 178              		.file 10 "Generated_Source\\PSoC5/SampleTime.h"
 179              		.file 11 "Generated_Source\\PSoC5/simulatedForce.h"
 180              		.file 12 "Generated_Source\\PSoC5/SampleInterrupt.h"