ARM GAS  C:\Users\GEORGE~1\AppData\Local\Temp\ccrhbktB.s 			page 1


   1              		.syntax unified
   2              		.cpu cortex-m3
   3              		.fpu softvfp
   4              		.eabi_attribute 20, 1
   5              		.eabi_attribute 21, 1
   6              		.eabi_attribute 23, 3
   7              		.eabi_attribute 24, 1
   8              		.eabi_attribute 25, 1
   9              		.eabi_attribute 26, 1
  10              		.eabi_attribute 30, 1
  11              		.eabi_attribute 34, 1
  12              		.eabi_attribute 18, 4
  13              		.thumb
  14              		.syntax unified
  15              		.file	"main.c"
  16              		.text
  17              	.Ltext0:
  18              		.cfi_sections	.debug_frame
  19              		.section	.text.ADC_Interrupt,"ax",%progbits
  20              		.align	2
  21              		.global	ADC_Interrupt
  22              		.thumb
  23              		.thumb_func
  24              		.type	ADC_Interrupt, %function
  25              	ADC_Interrupt:
  26              	.LFB63:
  27              		.file 1 "main.c"
   1:main.c        **** /* ========================================
   2:main.c        ****  *
   3:main.c        ****  * Copyright YOUR COMPANY, THE YEAR
   4:main.c        ****  * All Rights Reserved
   5:main.c        ****  * UNPUBLISHED, LICENSED SOFTWARE.
   6:main.c        ****  *
   7:main.c        ****  * CONFIDENTIAL AND PROPRIETARY INFORMATION
   8:main.c        ****  * WHICH IS THE PROPERTY OF your company.
   9:main.c        ****  *
  10:main.c        ****  * ========================================
  11:main.c        **** */
  12:main.c        **** #include "project.h"
  13:main.c        **** 
  14:main.c        **** uint8 LEDState = 0;
  15:main.c        **** 
  16:main.c        **** uint16 data;
  17:main.c        **** 
  18:main.c        **** CY_ISR(ADC_Interrupt)
  19:main.c        **** {
  28              		.loc 1 19 0
  29              		.cfi_startproc
  30              		@ args = 0, pretend = 0, frame = 0
  31              		@ frame_needed = 0, uses_anonymous_args = 0
  32 0000 08B5     		push	{r3, lr}
  33              		.cfi_def_cfa_offset 8
  34              		.cfi_offset 3, -8
  35              		.cfi_offset 14, -4
  20:main.c        ****     data = ADC_DelSig_1_GetResult16();
  36              		.loc 1 20 0
  37 0002 FFF7FEFF 		bl	ADC_DelSig_1_GetResult16
ARM GAS  C:\Users\GEORGE~1\AppData\Local\Temp\ccrhbktB.s 			page 2


  38              	.LVL0:
  39 0006 014B     		ldr	r3, .L3
  40 0008 1880     		strh	r0, [r3]	@ movhi
  41 000a 08BD     		pop	{r3, pc}
  42              	.L4:
  43              		.align	2
  44              	.L3:
  45 000c 00000000 		.word	data
  46              		.cfi_endproc
  47              	.LFE63:
  48              		.size	ADC_Interrupt, .-ADC_Interrupt
  49              		.section	.text.Timer_Interrupt,"ax",%progbits
  50              		.align	2
  51              		.global	Timer_Interrupt
  52              		.thumb
  53              		.thumb_func
  54              		.type	Timer_Interrupt, %function
  55              	Timer_Interrupt:
  56              	.LFB64:
  21:main.c        **** }
  22:main.c        **** 
  23:main.c        **** CY_ISR(Timer_Interrupt)
  24:main.c        **** {
  57              		.loc 1 24 0
  58              		.cfi_startproc
  59              		@ args = 0, pretend = 0, frame = 0
  60              		@ frame_needed = 0, uses_anonymous_args = 0
  61 0000 08B5     		push	{r3, lr}
  62              		.cfi_def_cfa_offset 8
  63              		.cfi_offset 3, -8
  64              		.cfi_offset 14, -4
  25:main.c        ****     
  26:main.c        ****       LED_Drive_Write(1);
  65              		.loc 1 26 0
  66 0002 0120     		movs	r0, #1
  67 0004 FFF7FEFF 		bl	LED_Drive_Write
  68              	.LVL1:
  27:main.c        ****       
  28:main.c        ****       CyDelay(20);
  69              		.loc 1 28 0
  70 0008 1420     		movs	r0, #20
  71 000a FFF7FEFF 		bl	CyDelay
  72              	.LVL2:
  29:main.c        ****     
  30:main.c        ****      Timer_ReadStatusRegister();
  73              		.loc 1 30 0
  74 000e FFF7FEFF 		bl	Timer_ReadStatusRegister
  75              	.LVL3:
  31:main.c        ****      LED_Drive_Write(0);
  76              		.loc 1 31 0
  77 0012 0020     		movs	r0, #0
  78 0014 FFF7FEFF 		bl	LED_Drive_Write
  79              	.LVL4:
  80 0018 08BD     		pop	{r3, pc}
  81              		.cfi_endproc
  82              	.LFE64:
  83              		.size	Timer_Interrupt, .-Timer_Interrupt
ARM GAS  C:\Users\GEORGE~1\AppData\Local\Temp\ccrhbktB.s 			page 3


  84 001a 00BF     		.section	.text.Timer2_Interrupt,"ax",%progbits
  85              		.align	2
  86              		.global	Timer2_Interrupt
  87              		.thumb
  88              		.thumb_func
  89              		.type	Timer2_Interrupt, %function
  90              	Timer2_Interrupt:
  91              	.LFB65:
  32:main.c        ****  }
  33:main.c        **** 
  34:main.c        **** CY_ISR(Timer2_Interrupt)
  35:main.c        ****   {
  92              		.loc 1 35 0
  93              		.cfi_startproc
  94              		@ args = 0, pretend = 0, frame = 0
  95              		@ frame_needed = 0, uses_anonymous_args = 0
  96 0000 08B5     		push	{r3, lr}
  97              		.cfi_def_cfa_offset 8
  98              		.cfi_offset 3, -8
  99              		.cfi_offset 14, -4
  36:main.c        ****     
  37:main.c        ****       Marker2_Write(1);
 100              		.loc 1 37 0
 101 0002 0120     		movs	r0, #1
 102 0004 FFF7FEFF 		bl	Marker2_Write
 103              	.LVL5:
  38:main.c        ****       CyDelay(1);
 104              		.loc 1 38 0
 105 0008 0120     		movs	r0, #1
 106 000a FFF7FEFF 		bl	CyDelay
 107              	.LVL6:
  39:main.c        ****     
  40:main.c        ****       Timer2_ReadStatusRegister();
 108              		.loc 1 40 0
 109 000e FFF7FEFF 		bl	Timer2_ReadStatusRegister
 110              	.LVL7:
  41:main.c        ****       Marker2_Write(0);
 111              		.loc 1 41 0
 112 0012 0020     		movs	r0, #0
 113 0014 FFF7FEFF 		bl	Marker2_Write
 114              	.LVL8:
 115 0018 08BD     		pop	{r3, pc}
 116              		.cfi_endproc
 117              	.LFE65:
 118              		.size	Timer2_Interrupt, .-Timer2_Interrupt
 119 001a 00BF     		.section	.text.main,"ax",%progbits
 120              		.align	2
 121              		.global	main
 122              		.thumb
 123              		.thumb_func
 124              		.type	main, %function
 125              	main:
 126              	.LFB66:
  42:main.c        ****      
  43:main.c        ****  }  
  44:main.c        **** 
  45:main.c        **** int main(void)
ARM GAS  C:\Users\GEORGE~1\AppData\Local\Temp\ccrhbktB.s 			page 4


  46:main.c        **** {
 127              		.loc 1 46 0
 128              		.cfi_startproc
 129              		@ Volatile: function does not return.
 130              		@ args = 0, pretend = 0, frame = 0
 131              		@ frame_needed = 0, uses_anonymous_args = 0
 132 0000 08B5     		push	{r3, lr}
 133              		.cfi_def_cfa_offset 8
 134              		.cfi_offset 3, -8
 135              		.cfi_offset 14, -4
  47:main.c        ****     ADC_DelSig_1_Start();
 136              		.loc 1 47 0
 137 0002 FFF7FEFF 		bl	ADC_DelSig_1_Start
 138              	.LVL9:
  48:main.c        ****     
  49:main.c        ****     ADC_Interrupt_Start();
 139              		.loc 1 49 0
 140 0006 FFF7FEFF 		bl	ADC_Interrupt_Start
 141              	.LVL10:
  50:main.c        ****     ADC_Interrupt_StartEx(ADC_Interrupt);
 142              		.loc 1 50 0
 143 000a 0D48     		ldr	r0, .L12
 144 000c FFF7FEFF 		bl	ADC_Interrupt_StartEx
 145              	.LVL11:
  51:main.c        ****     ADC_Interrupt_Enable();
 146              		.loc 1 51 0
 147 0010 FFF7FEFF 		bl	ADC_Interrupt_Enable
 148              	.LVL12:
  52:main.c        ****     
  53:main.c        ****     ADC_DelSig_1_StartConvert();
 149              		.loc 1 53 0
 150 0014 FFF7FEFF 		bl	ADC_DelSig_1_StartConvert
 151              	.LVL13:
  54:main.c        ****     
  55:main.c        ****     
  56:main.c        ****     Timer_Start();
 152              		.loc 1 56 0
 153 0018 FFF7FEFF 		bl	Timer_Start
 154              	.LVL14:
  57:main.c        ****     
  58:main.c        ****     Timer_Interrupt_Start();
 155              		.loc 1 58 0
 156 001c FFF7FEFF 		bl	Timer_Interrupt_Start
 157              	.LVL15:
  59:main.c        ****     Timer_Interrupt_StartEx(Timer_Interrupt);
 158              		.loc 1 59 0
 159 0020 0848     		ldr	r0, .L12+4
 160 0022 FFF7FEFF 		bl	Timer_Interrupt_StartEx
 161              	.LVL16:
  60:main.c        ****     Timer_Interrupt_Enable();
 162              		.loc 1 60 0
 163 0026 FFF7FEFF 		bl	Timer_Interrupt_Enable
 164              	.LVL17:
  61:main.c        ****     
  62:main.c        ****     Timer2_Start();
 165              		.loc 1 62 0
 166 002a FFF7FEFF 		bl	Timer2_Start
ARM GAS  C:\Users\GEORGE~1\AppData\Local\Temp\ccrhbktB.s 			page 5


 167              	.LVL18:
  63:main.c        ****     
  64:main.c        ****     Timer2_Interrupt_Start();
 168              		.loc 1 64 0
 169 002e FFF7FEFF 		bl	Timer2_Interrupt_Start
 170              	.LVL19:
  65:main.c        ****     Timer2_Interrupt_StartEx(Timer2_Interrupt);
 171              		.loc 1 65 0
 172 0032 0548     		ldr	r0, .L12+8
 173 0034 FFF7FEFF 		bl	Timer2_Interrupt_StartEx
 174              	.LVL20:
  66:main.c        ****     Timer2_Interrupt_Enable();
 175              		.loc 1 66 0
 176 0038 FFF7FEFF 		bl	Timer2_Interrupt_Enable
 177              	.LVL21:
  67:main.c        ****     
  68:main.c        ****     
  69:main.c        ****     
  70:main.c        ****     CyGlobalIntEnable; /* Enable global interrupts. */
 178              		.loc 1 70 0
 179              		.syntax unified
 180              	@ 70 "main.c" 1
 181 003c 62B6     		CPSIE   i
 182              	@ 0 "" 2
 183              		.thumb
 184              		.syntax unified
 185              	.L10:
 186 003e FEE7     		b	.L10
 187              	.L13:
 188              		.align	2
 189              	.L12:
 190 0040 00000000 		.word	ADC_Interrupt
 191 0044 00000000 		.word	Timer_Interrupt
 192 0048 00000000 		.word	Timer2_Interrupt
 193              		.cfi_endproc
 194              	.LFE66:
 195              		.size	main, .-main
 196              		.comm	data,2,2
 197              		.global	LEDState
 198              		.bss
 199              		.type	LEDState, %object
 200              		.size	LEDState, 1
 201              	LEDState:
 202 0000 00       		.space	1
 203              		.text
 204              	.Letext0:
 205              		.file 2 "c:\\program files (x86)\\cypress\\psoc creator\\4.2\\psoc creator\\import\\gnu\\arm\\5.4.
 206              		.file 3 "c:\\program files (x86)\\cypress\\psoc creator\\4.2\\psoc creator\\import\\gnu\\arm\\5.4.
 207              		.file 4 "Generated_Source\\PSoC5/cytypes.h"
 208              		.file 5 "Generated_Source\\PSoC5/core_cm3.h"
 209              		.file 6 "Generated_Source\\PSoC5/ADC_DelSig_1.h"
 210              		.file 7 "Generated_Source\\PSoC5/LED_Drive.h"
 211              		.file 8 "Generated_Source\\PSoC5/CyLib.h"
 212              		.file 9 "Generated_Source\\PSoC5/Timer.h"
 213              		.file 10 "Generated_Source\\PSoC5/Marker2.h"
 214              		.file 11 "Generated_Source\\PSoC5/Timer2.h"
 215              		.file 12 "Generated_Source\\PSoC5/ADC_Interrupt.h"
ARM GAS  C:\Users\GEORGE~1\AppData\Local\Temp\ccrhbktB.s 			page 6


 216              		.file 13 "Generated_Source\\PSoC5/Timer_Interrupt.h"
 217              		.file 14 "Generated_Source\\PSoC5/Timer2_Interrupt.h"