ARM GAS  C:\Users\GEORGE~1\AppData\Local\Temp\ccOHECfC.s 			page 1


   1              		.syntax unified
   2              		.cpu cortex-m3
   3              		.fpu softvfp
   4              		.eabi_attribute 20, 1
   5              		.eabi_attribute 21, 1
   6              		.eabi_attribute 23, 3
   7              		.eabi_attribute 24, 1
   8              		.eabi_attribute 25, 1
   9              		.eabi_attribute 26, 1
  10              		.eabi_attribute 30, 1
  11              		.eabi_attribute 34, 1
  12              		.eabi_attribute 18, 4
  13              		.thumb
  14              		.syntax unified
  15              		.file	"SteppeStep.c"
  16              		.text
  17              	.Ltext0:
  18              		.cfi_sections	.debug_frame
  19              		.section	.text.SteppeStep_Enable,"ax",%progbits
  20              		.align	2
  21              		.global	SteppeStep_Enable
  22              		.thumb
  23              		.thumb_func
  24              		.type	SteppeStep_Enable, %function
  25              	SteppeStep_Enable:
  26              	.LFB1:
  27              		.file 1 "Generated_Source\\PSoC5\\SteppeStep.c"
   1:Generated_Source\PSoC5/SteppeStep.c **** /*******************************************************************************
   2:Generated_Source\PSoC5/SteppeStep.c **** * File Name: SteppeStep.c
   3:Generated_Source\PSoC5/SteppeStep.c **** * Version 2.80
   4:Generated_Source\PSoC5/SteppeStep.c **** *
   5:Generated_Source\PSoC5/SteppeStep.c **** * Description:
   6:Generated_Source\PSoC5/SteppeStep.c **** *  The Timer component consists of a 8, 16, 24 or 32-bit timer with
   7:Generated_Source\PSoC5/SteppeStep.c **** *  a selectable period between 2 and 2^Width - 1.  The timer may free run
   8:Generated_Source\PSoC5/SteppeStep.c **** *  or be used as a capture timer as well.  The capture can be initiated
   9:Generated_Source\PSoC5/SteppeStep.c **** *  by a positive or negative edge signal as well as via software.
  10:Generated_Source\PSoC5/SteppeStep.c **** *  A trigger input can be programmed to enable the timer on rising edge
  11:Generated_Source\PSoC5/SteppeStep.c **** *  falling edge, either edge or continous run.
  12:Generated_Source\PSoC5/SteppeStep.c **** *  Interrupts may be generated due to a terminal count condition
  13:Generated_Source\PSoC5/SteppeStep.c **** *  or a capture event.
  14:Generated_Source\PSoC5/SteppeStep.c **** *
  15:Generated_Source\PSoC5/SteppeStep.c **** * Note:
  16:Generated_Source\PSoC5/SteppeStep.c **** *
  17:Generated_Source\PSoC5/SteppeStep.c **** ********************************************************************************
  18:Generated_Source\PSoC5/SteppeStep.c **** * Copyright 2008-2017, Cypress Semiconductor Corporation.  All rights reserved.
  19:Generated_Source\PSoC5/SteppeStep.c **** * You may use this file only in accordance with the license, terms, conditions,
  20:Generated_Source\PSoC5/SteppeStep.c **** * disclaimers, and limitations in the end user license agreement accompanying
  21:Generated_Source\PSoC5/SteppeStep.c **** * the software package with which this file was provided.
  22:Generated_Source\PSoC5/SteppeStep.c **** ********************************************************************************/
  23:Generated_Source\PSoC5/SteppeStep.c **** 
  24:Generated_Source\PSoC5/SteppeStep.c **** #include "SteppeStep.h"
  25:Generated_Source\PSoC5/SteppeStep.c **** 
  26:Generated_Source\PSoC5/SteppeStep.c **** uint8 SteppeStep_initVar = 0u;
  27:Generated_Source\PSoC5/SteppeStep.c **** 
  28:Generated_Source\PSoC5/SteppeStep.c **** 
  29:Generated_Source\PSoC5/SteppeStep.c **** /*******************************************************************************
  30:Generated_Source\PSoC5/SteppeStep.c **** * Function Name: SteppeStep_Init
ARM GAS  C:\Users\GEORGE~1\AppData\Local\Temp\ccOHECfC.s 			page 2


  31:Generated_Source\PSoC5/SteppeStep.c **** ********************************************************************************
  32:Generated_Source\PSoC5/SteppeStep.c **** *
  33:Generated_Source\PSoC5/SteppeStep.c **** * Summary:
  34:Generated_Source\PSoC5/SteppeStep.c **** *  Initialize to the schematic state
  35:Generated_Source\PSoC5/SteppeStep.c **** *
  36:Generated_Source\PSoC5/SteppeStep.c **** * Parameters:
  37:Generated_Source\PSoC5/SteppeStep.c **** *  void
  38:Generated_Source\PSoC5/SteppeStep.c **** *
  39:Generated_Source\PSoC5/SteppeStep.c **** * Return:
  40:Generated_Source\PSoC5/SteppeStep.c **** *  void
  41:Generated_Source\PSoC5/SteppeStep.c **** *
  42:Generated_Source\PSoC5/SteppeStep.c **** *******************************************************************************/
  43:Generated_Source\PSoC5/SteppeStep.c **** void SteppeStep_Init(void) 
  44:Generated_Source\PSoC5/SteppeStep.c **** {
  45:Generated_Source\PSoC5/SteppeStep.c ****     #if(!SteppeStep_UsingFixedFunction)
  46:Generated_Source\PSoC5/SteppeStep.c ****             /* Interrupt State Backup for Critical Region*/
  47:Generated_Source\PSoC5/SteppeStep.c ****             uint8 SteppeStep_interruptState;
  48:Generated_Source\PSoC5/SteppeStep.c ****     #endif /* Interrupt state back up for Fixed Function only */
  49:Generated_Source\PSoC5/SteppeStep.c **** 
  50:Generated_Source\PSoC5/SteppeStep.c ****     #if (SteppeStep_UsingFixedFunction)
  51:Generated_Source\PSoC5/SteppeStep.c ****         /* Clear all bits but the enable bit (if it's already set) for Timer operation */
  52:Generated_Source\PSoC5/SteppeStep.c ****         SteppeStep_CONTROL &= SteppeStep_CTRL_ENABLE;
  53:Generated_Source\PSoC5/SteppeStep.c **** 
  54:Generated_Source\PSoC5/SteppeStep.c ****         /* Clear the mode bits for continuous run mode */
  55:Generated_Source\PSoC5/SteppeStep.c ****         #if (CY_PSOC5A)
  56:Generated_Source\PSoC5/SteppeStep.c ****             SteppeStep_CONTROL2 &= ((uint8)(~SteppeStep_CTRL_MODE_MASK));
  57:Generated_Source\PSoC5/SteppeStep.c ****         #endif /* Clear bits in CONTROL2 only in PSOC5A */
  58:Generated_Source\PSoC5/SteppeStep.c **** 
  59:Generated_Source\PSoC5/SteppeStep.c ****         #if (CY_PSOC3 || CY_PSOC5LP)
  60:Generated_Source\PSoC5/SteppeStep.c ****             SteppeStep_CONTROL3 &= ((uint8)(~SteppeStep_CTRL_MODE_MASK));
  61:Generated_Source\PSoC5/SteppeStep.c ****         #endif /* CONTROL3 register exists only in PSoC3 OR PSoC5LP */
  62:Generated_Source\PSoC5/SteppeStep.c **** 
  63:Generated_Source\PSoC5/SteppeStep.c ****         /* Check if One Shot mode is enabled i.e. RunMode !=0*/
  64:Generated_Source\PSoC5/SteppeStep.c ****         #if (SteppeStep_RunModeUsed != 0x0u)
  65:Generated_Source\PSoC5/SteppeStep.c ****             /* Set 3rd bit of Control register to enable one shot mode */
  66:Generated_Source\PSoC5/SteppeStep.c ****             SteppeStep_CONTROL |= 0x04u;
  67:Generated_Source\PSoC5/SteppeStep.c ****         #endif /* One Shot enabled only when RunModeUsed is not Continuous*/
  68:Generated_Source\PSoC5/SteppeStep.c **** 
  69:Generated_Source\PSoC5/SteppeStep.c ****         #if (SteppeStep_RunModeUsed == 2)
  70:Generated_Source\PSoC5/SteppeStep.c ****             #if (CY_PSOC5A)
  71:Generated_Source\PSoC5/SteppeStep.c ****                 /* Set last 2 bits of control2 register if one shot(halt on
  72:Generated_Source\PSoC5/SteppeStep.c ****                 interrupt) is enabled*/
  73:Generated_Source\PSoC5/SteppeStep.c ****                 SteppeStep_CONTROL2 |= 0x03u;
  74:Generated_Source\PSoC5/SteppeStep.c ****             #endif /* Set One-Shot Halt on Interrupt bit in CONTROL2 for PSoC5A */
  75:Generated_Source\PSoC5/SteppeStep.c **** 
  76:Generated_Source\PSoC5/SteppeStep.c ****             #if (CY_PSOC3 || CY_PSOC5LP)
  77:Generated_Source\PSoC5/SteppeStep.c ****                 /* Set last 2 bits of control3 register if one shot(halt on
  78:Generated_Source\PSoC5/SteppeStep.c ****                 interrupt) is enabled*/
  79:Generated_Source\PSoC5/SteppeStep.c ****                 SteppeStep_CONTROL3 |= 0x03u;
  80:Generated_Source\PSoC5/SteppeStep.c ****             #endif /* Set One-Shot Halt on Interrupt bit in CONTROL3 for PSoC3 or PSoC5LP */
  81:Generated_Source\PSoC5/SteppeStep.c **** 
  82:Generated_Source\PSoC5/SteppeStep.c ****         #endif /* Remove section if One Shot Halt on Interrupt is not enabled */
  83:Generated_Source\PSoC5/SteppeStep.c **** 
  84:Generated_Source\PSoC5/SteppeStep.c ****         #if (SteppeStep_UsingHWEnable != 0)
  85:Generated_Source\PSoC5/SteppeStep.c ****             #if (CY_PSOC5A)
  86:Generated_Source\PSoC5/SteppeStep.c ****                 /* Set the default Run Mode of the Timer to Continuous */
  87:Generated_Source\PSoC5/SteppeStep.c ****                 SteppeStep_CONTROL2 |= SteppeStep_CTRL_MODE_PULSEWIDTH;
ARM GAS  C:\Users\GEORGE~1\AppData\Local\Temp\ccOHECfC.s 			page 3


  88:Generated_Source\PSoC5/SteppeStep.c ****             #endif /* Set Continuous Run Mode in CONTROL2 for PSoC5A */
  89:Generated_Source\PSoC5/SteppeStep.c **** 
  90:Generated_Source\PSoC5/SteppeStep.c ****             #if (CY_PSOC3 || CY_PSOC5LP)
  91:Generated_Source\PSoC5/SteppeStep.c ****                 /* Clear and Set ROD and COD bits of CFG2 register */
  92:Generated_Source\PSoC5/SteppeStep.c ****                 SteppeStep_CONTROL3 &= ((uint8)(~SteppeStep_CTRL_RCOD_MASK));
  93:Generated_Source\PSoC5/SteppeStep.c ****                 SteppeStep_CONTROL3 |= SteppeStep_CTRL_RCOD;
  94:Generated_Source\PSoC5/SteppeStep.c **** 
  95:Generated_Source\PSoC5/SteppeStep.c ****                 /* Clear and Enable the HW enable bit in CFG2 register */
  96:Generated_Source\PSoC5/SteppeStep.c ****                 SteppeStep_CONTROL3 &= ((uint8)(~SteppeStep_CTRL_ENBL_MASK));
  97:Generated_Source\PSoC5/SteppeStep.c ****                 SteppeStep_CONTROL3 |= SteppeStep_CTRL_ENBL;
  98:Generated_Source\PSoC5/SteppeStep.c **** 
  99:Generated_Source\PSoC5/SteppeStep.c ****                 /* Set the default Run Mode of the Timer to Continuous */
 100:Generated_Source\PSoC5/SteppeStep.c ****                 SteppeStep_CONTROL3 |= SteppeStep_CTRL_MODE_CONTINUOUS;
 101:Generated_Source\PSoC5/SteppeStep.c ****             #endif /* Set Continuous Run Mode in CONTROL3 for PSoC3ES3 or PSoC5A */
 102:Generated_Source\PSoC5/SteppeStep.c **** 
 103:Generated_Source\PSoC5/SteppeStep.c ****         #endif /* Configure Run Mode with hardware enable */
 104:Generated_Source\PSoC5/SteppeStep.c **** 
 105:Generated_Source\PSoC5/SteppeStep.c ****         /* Clear and Set SYNCTC and SYNCCMP bits of RT1 register */
 106:Generated_Source\PSoC5/SteppeStep.c ****         SteppeStep_RT1 &= ((uint8)(~SteppeStep_RT1_MASK));
 107:Generated_Source\PSoC5/SteppeStep.c ****         SteppeStep_RT1 |= SteppeStep_SYNC;
 108:Generated_Source\PSoC5/SteppeStep.c **** 
 109:Generated_Source\PSoC5/SteppeStep.c ****         /*Enable DSI Sync all all inputs of the Timer*/
 110:Generated_Source\PSoC5/SteppeStep.c ****         SteppeStep_RT1 &= ((uint8)(~SteppeStep_SYNCDSI_MASK));
 111:Generated_Source\PSoC5/SteppeStep.c ****         SteppeStep_RT1 |= SteppeStep_SYNCDSI_EN;
 112:Generated_Source\PSoC5/SteppeStep.c **** 
 113:Generated_Source\PSoC5/SteppeStep.c ****         /* Set the IRQ to use the status register interrupts */
 114:Generated_Source\PSoC5/SteppeStep.c ****         SteppeStep_CONTROL2 |= SteppeStep_CTRL2_IRQ_SEL;
 115:Generated_Source\PSoC5/SteppeStep.c ****     #endif /* Configuring registers of fixed function implementation */
 116:Generated_Source\PSoC5/SteppeStep.c **** 
 117:Generated_Source\PSoC5/SteppeStep.c ****     /* Set Initial values from Configuration */
 118:Generated_Source\PSoC5/SteppeStep.c ****     SteppeStep_WritePeriod(SteppeStep_INIT_PERIOD);
 119:Generated_Source\PSoC5/SteppeStep.c ****     SteppeStep_WriteCounter(SteppeStep_INIT_PERIOD);
 120:Generated_Source\PSoC5/SteppeStep.c **** 
 121:Generated_Source\PSoC5/SteppeStep.c ****     #if (SteppeStep_UsingHWCaptureCounter)/* Capture counter is enabled */
 122:Generated_Source\PSoC5/SteppeStep.c ****         SteppeStep_CAPTURE_COUNT_CTRL |= SteppeStep_CNTR_ENABLE;
 123:Generated_Source\PSoC5/SteppeStep.c ****         SteppeStep_SetCaptureCount(SteppeStep_INIT_CAPTURE_COUNT);
 124:Generated_Source\PSoC5/SteppeStep.c ****     #endif /* Configure capture counter value */
 125:Generated_Source\PSoC5/SteppeStep.c **** 
 126:Generated_Source\PSoC5/SteppeStep.c ****     #if (!SteppeStep_UsingFixedFunction)
 127:Generated_Source\PSoC5/SteppeStep.c ****         #if (SteppeStep_SoftwareCaptureMode)
 128:Generated_Source\PSoC5/SteppeStep.c ****             SteppeStep_SetCaptureMode(SteppeStep_INIT_CAPTURE_MODE);
 129:Generated_Source\PSoC5/SteppeStep.c ****         #endif /* Set Capture Mode for UDB implementation if capture mode is software controlled */
 130:Generated_Source\PSoC5/SteppeStep.c **** 
 131:Generated_Source\PSoC5/SteppeStep.c ****         #if (SteppeStep_SoftwareTriggerMode)
 132:Generated_Source\PSoC5/SteppeStep.c ****             #if (!SteppeStep_UDB_CONTROL_REG_REMOVED)
 133:Generated_Source\PSoC5/SteppeStep.c ****                 if (0u == (SteppeStep_CONTROL & SteppeStep__B_TIMER__TM_SOFTWARE))
 134:Generated_Source\PSoC5/SteppeStep.c ****                 {
 135:Generated_Source\PSoC5/SteppeStep.c ****                     SteppeStep_SetTriggerMode(SteppeStep_INIT_TRIGGER_MODE);
 136:Generated_Source\PSoC5/SteppeStep.c ****                 }
 137:Generated_Source\PSoC5/SteppeStep.c ****             #endif /* (!SteppeStep_UDB_CONTROL_REG_REMOVED) */
 138:Generated_Source\PSoC5/SteppeStep.c ****         #endif /* Set trigger mode for UDB Implementation if trigger mode is software controlled */
 139:Generated_Source\PSoC5/SteppeStep.c **** 
 140:Generated_Source\PSoC5/SteppeStep.c ****         /* CyEnterCriticalRegion and CyExitCriticalRegion are used to mark following region critica
 141:Generated_Source\PSoC5/SteppeStep.c ****         /* Enter Critical Region*/
 142:Generated_Source\PSoC5/SteppeStep.c ****         SteppeStep_interruptState = CyEnterCriticalSection();
 143:Generated_Source\PSoC5/SteppeStep.c **** 
 144:Generated_Source\PSoC5/SteppeStep.c ****         /* Use the interrupt output of the status register for IRQ output */
ARM GAS  C:\Users\GEORGE~1\AppData\Local\Temp\ccOHECfC.s 			page 4


 145:Generated_Source\PSoC5/SteppeStep.c ****         SteppeStep_STATUS_AUX_CTRL |= SteppeStep_STATUS_ACTL_INT_EN_MASK;
 146:Generated_Source\PSoC5/SteppeStep.c **** 
 147:Generated_Source\PSoC5/SteppeStep.c ****         /* Exit Critical Region*/
 148:Generated_Source\PSoC5/SteppeStep.c ****         CyExitCriticalSection(SteppeStep_interruptState);
 149:Generated_Source\PSoC5/SteppeStep.c **** 
 150:Generated_Source\PSoC5/SteppeStep.c ****         #if (SteppeStep_EnableTriggerMode)
 151:Generated_Source\PSoC5/SteppeStep.c ****             SteppeStep_EnableTrigger();
 152:Generated_Source\PSoC5/SteppeStep.c ****         #endif /* Set Trigger enable bit for UDB implementation in the control register*/
 153:Generated_Source\PSoC5/SteppeStep.c **** 		
 154:Generated_Source\PSoC5/SteppeStep.c **** 		
 155:Generated_Source\PSoC5/SteppeStep.c ****         #if (SteppeStep_InterruptOnCaptureCount && !SteppeStep_UDB_CONTROL_REG_REMOVED)
 156:Generated_Source\PSoC5/SteppeStep.c ****             SteppeStep_SetInterruptCount(SteppeStep_INIT_INT_CAPTURE_COUNT);
 157:Generated_Source\PSoC5/SteppeStep.c ****         #endif /* Set interrupt count in UDB implementation if interrupt count feature is checked.*
 158:Generated_Source\PSoC5/SteppeStep.c **** 
 159:Generated_Source\PSoC5/SteppeStep.c ****         SteppeStep_ClearFIFO();
 160:Generated_Source\PSoC5/SteppeStep.c ****     #endif /* Configure additional features of UDB implementation */
 161:Generated_Source\PSoC5/SteppeStep.c **** 
 162:Generated_Source\PSoC5/SteppeStep.c ****     SteppeStep_SetInterruptMode(SteppeStep_INIT_INTERRUPT_MODE);
 163:Generated_Source\PSoC5/SteppeStep.c **** }
 164:Generated_Source\PSoC5/SteppeStep.c **** 
 165:Generated_Source\PSoC5/SteppeStep.c **** 
 166:Generated_Source\PSoC5/SteppeStep.c **** /*******************************************************************************
 167:Generated_Source\PSoC5/SteppeStep.c **** * Function Name: SteppeStep_Enable
 168:Generated_Source\PSoC5/SteppeStep.c **** ********************************************************************************
 169:Generated_Source\PSoC5/SteppeStep.c **** *
 170:Generated_Source\PSoC5/SteppeStep.c **** * Summary:
 171:Generated_Source\PSoC5/SteppeStep.c **** *  Enable the Timer
 172:Generated_Source\PSoC5/SteppeStep.c **** *
 173:Generated_Source\PSoC5/SteppeStep.c **** * Parameters:
 174:Generated_Source\PSoC5/SteppeStep.c **** *  void
 175:Generated_Source\PSoC5/SteppeStep.c **** *
 176:Generated_Source\PSoC5/SteppeStep.c **** * Return:
 177:Generated_Source\PSoC5/SteppeStep.c **** *  void
 178:Generated_Source\PSoC5/SteppeStep.c **** *
 179:Generated_Source\PSoC5/SteppeStep.c **** *******************************************************************************/
 180:Generated_Source\PSoC5/SteppeStep.c **** void SteppeStep_Enable(void) 
 181:Generated_Source\PSoC5/SteppeStep.c **** {
  28              		.loc 1 181 0
  29              		.cfi_startproc
  30              		@ args = 0, pretend = 0, frame = 0
  31              		@ frame_needed = 0, uses_anonymous_args = 0
  32              		@ link register save eliminated.
  33 0000 7047     		bx	lr
  34              		.cfi_endproc
  35              	.LFE1:
  36              		.size	SteppeStep_Enable, .-SteppeStep_Enable
  37 0002 00BF     		.section	.text.SteppeStep_Stop,"ax",%progbits
  38              		.align	2
  39              		.global	SteppeStep_Stop
  40              		.thumb
  41              		.thumb_func
  42              		.type	SteppeStep_Stop, %function
  43              	SteppeStep_Stop:
  44              	.LFB3:
 182:Generated_Source\PSoC5/SteppeStep.c ****     /* Globally Enable the Fixed Function Block chosen */
 183:Generated_Source\PSoC5/SteppeStep.c ****     #if (SteppeStep_UsingFixedFunction)
 184:Generated_Source\PSoC5/SteppeStep.c ****         SteppeStep_GLOBAL_ENABLE |= SteppeStep_BLOCK_EN_MASK;
ARM GAS  C:\Users\GEORGE~1\AppData\Local\Temp\ccOHECfC.s 			page 5


 185:Generated_Source\PSoC5/SteppeStep.c ****         SteppeStep_GLOBAL_STBY_ENABLE |= SteppeStep_BLOCK_STBY_EN_MASK;
 186:Generated_Source\PSoC5/SteppeStep.c ****     #endif /* Set Enable bit for enabling Fixed function timer*/
 187:Generated_Source\PSoC5/SteppeStep.c **** 
 188:Generated_Source\PSoC5/SteppeStep.c ****     /* Remove assignment if control register is removed */
 189:Generated_Source\PSoC5/SteppeStep.c ****     #if (!SteppeStep_UDB_CONTROL_REG_REMOVED || SteppeStep_UsingFixedFunction)
 190:Generated_Source\PSoC5/SteppeStep.c ****         SteppeStep_CONTROL |= SteppeStep_CTRL_ENABLE;
 191:Generated_Source\PSoC5/SteppeStep.c ****     #endif /* Remove assignment if control register is removed */
 192:Generated_Source\PSoC5/SteppeStep.c **** }
 193:Generated_Source\PSoC5/SteppeStep.c **** 
 194:Generated_Source\PSoC5/SteppeStep.c **** 
 195:Generated_Source\PSoC5/SteppeStep.c **** /*******************************************************************************
 196:Generated_Source\PSoC5/SteppeStep.c **** * Function Name: SteppeStep_Start
 197:Generated_Source\PSoC5/SteppeStep.c **** ********************************************************************************
 198:Generated_Source\PSoC5/SteppeStep.c **** *
 199:Generated_Source\PSoC5/SteppeStep.c **** * Summary:
 200:Generated_Source\PSoC5/SteppeStep.c **** *  The start function initializes the timer with the default values, the
 201:Generated_Source\PSoC5/SteppeStep.c **** *  enables the timerto begin counting.  It does not enable interrupts,
 202:Generated_Source\PSoC5/SteppeStep.c **** *  the EnableInt command should be called if interrupt generation is required.
 203:Generated_Source\PSoC5/SteppeStep.c **** *
 204:Generated_Source\PSoC5/SteppeStep.c **** * Parameters:
 205:Generated_Source\PSoC5/SteppeStep.c **** *  void
 206:Generated_Source\PSoC5/SteppeStep.c **** *
 207:Generated_Source\PSoC5/SteppeStep.c **** * Return:
 208:Generated_Source\PSoC5/SteppeStep.c **** *  void
 209:Generated_Source\PSoC5/SteppeStep.c **** *
 210:Generated_Source\PSoC5/SteppeStep.c **** * Global variables:
 211:Generated_Source\PSoC5/SteppeStep.c **** *  SteppeStep_initVar: Is modified when this function is called for the
 212:Generated_Source\PSoC5/SteppeStep.c **** *   first time. Is used to ensure that initialization happens only once.
 213:Generated_Source\PSoC5/SteppeStep.c **** *
 214:Generated_Source\PSoC5/SteppeStep.c **** *******************************************************************************/
 215:Generated_Source\PSoC5/SteppeStep.c **** void SteppeStep_Start(void) 
 216:Generated_Source\PSoC5/SteppeStep.c **** {
 217:Generated_Source\PSoC5/SteppeStep.c ****     if(SteppeStep_initVar == 0u)
 218:Generated_Source\PSoC5/SteppeStep.c ****     {
 219:Generated_Source\PSoC5/SteppeStep.c ****         SteppeStep_Init();
 220:Generated_Source\PSoC5/SteppeStep.c **** 
 221:Generated_Source\PSoC5/SteppeStep.c ****         SteppeStep_initVar = 1u;   /* Clear this bit for Initialization */
 222:Generated_Source\PSoC5/SteppeStep.c ****     }
 223:Generated_Source\PSoC5/SteppeStep.c **** 
 224:Generated_Source\PSoC5/SteppeStep.c ****     /* Enable the Timer */
 225:Generated_Source\PSoC5/SteppeStep.c ****     SteppeStep_Enable();
 226:Generated_Source\PSoC5/SteppeStep.c **** }
 227:Generated_Source\PSoC5/SteppeStep.c **** 
 228:Generated_Source\PSoC5/SteppeStep.c **** 
 229:Generated_Source\PSoC5/SteppeStep.c **** /*******************************************************************************
 230:Generated_Source\PSoC5/SteppeStep.c **** * Function Name: SteppeStep_Stop
 231:Generated_Source\PSoC5/SteppeStep.c **** ********************************************************************************
 232:Generated_Source\PSoC5/SteppeStep.c **** *
 233:Generated_Source\PSoC5/SteppeStep.c **** * Summary:
 234:Generated_Source\PSoC5/SteppeStep.c **** *  The stop function halts the timer, but does not change any modes or disable
 235:Generated_Source\PSoC5/SteppeStep.c **** *  interrupts.
 236:Generated_Source\PSoC5/SteppeStep.c **** *
 237:Generated_Source\PSoC5/SteppeStep.c **** * Parameters:
 238:Generated_Source\PSoC5/SteppeStep.c **** *  void
 239:Generated_Source\PSoC5/SteppeStep.c **** *
 240:Generated_Source\PSoC5/SteppeStep.c **** * Return:
 241:Generated_Source\PSoC5/SteppeStep.c **** *  void
ARM GAS  C:\Users\GEORGE~1\AppData\Local\Temp\ccOHECfC.s 			page 6


 242:Generated_Source\PSoC5/SteppeStep.c **** *
 243:Generated_Source\PSoC5/SteppeStep.c **** * Side Effects: If the Enable mode is set to Hardware only then this function
 244:Generated_Source\PSoC5/SteppeStep.c **** *               has no effect on the operation of the timer.
 245:Generated_Source\PSoC5/SteppeStep.c **** *
 246:Generated_Source\PSoC5/SteppeStep.c **** *******************************************************************************/
 247:Generated_Source\PSoC5/SteppeStep.c **** void SteppeStep_Stop(void) 
 248:Generated_Source\PSoC5/SteppeStep.c **** {
  45              		.loc 1 248 0
  46              		.cfi_startproc
  47              		@ args = 0, pretend = 0, frame = 0
  48              		@ frame_needed = 0, uses_anonymous_args = 0
  49              		@ link register save eliminated.
  50 0000 7047     		bx	lr
  51              		.cfi_endproc
  52              	.LFE3:
  53              		.size	SteppeStep_Stop, .-SteppeStep_Stop
  54 0002 00BF     		.section	.text.SteppeStep_SetInterruptMode,"ax",%progbits
  55              		.align	2
  56              		.global	SteppeStep_SetInterruptMode
  57              		.thumb
  58              		.thumb_func
  59              		.type	SteppeStep_SetInterruptMode, %function
  60              	SteppeStep_SetInterruptMode:
  61              	.LFB4:
 249:Generated_Source\PSoC5/SteppeStep.c ****     /* Disable Timer */
 250:Generated_Source\PSoC5/SteppeStep.c ****     #if(!SteppeStep_UDB_CONTROL_REG_REMOVED || SteppeStep_UsingFixedFunction)
 251:Generated_Source\PSoC5/SteppeStep.c ****         SteppeStep_CONTROL &= ((uint8)(~SteppeStep_CTRL_ENABLE));
 252:Generated_Source\PSoC5/SteppeStep.c ****     #endif /* Remove assignment if control register is removed */
 253:Generated_Source\PSoC5/SteppeStep.c **** 
 254:Generated_Source\PSoC5/SteppeStep.c ****     /* Globally disable the Fixed Function Block chosen */
 255:Generated_Source\PSoC5/SteppeStep.c ****     #if (SteppeStep_UsingFixedFunction)
 256:Generated_Source\PSoC5/SteppeStep.c ****         SteppeStep_GLOBAL_ENABLE &= ((uint8)(~SteppeStep_BLOCK_EN_MASK));
 257:Generated_Source\PSoC5/SteppeStep.c ****         SteppeStep_GLOBAL_STBY_ENABLE &= ((uint8)(~SteppeStep_BLOCK_STBY_EN_MASK));
 258:Generated_Source\PSoC5/SteppeStep.c ****     #endif /* Disable global enable for the Timer Fixed function block to stop the Timer*/
 259:Generated_Source\PSoC5/SteppeStep.c **** }
 260:Generated_Source\PSoC5/SteppeStep.c **** 
 261:Generated_Source\PSoC5/SteppeStep.c **** 
 262:Generated_Source\PSoC5/SteppeStep.c **** /*******************************************************************************
 263:Generated_Source\PSoC5/SteppeStep.c **** * Function Name: SteppeStep_SetInterruptMode
 264:Generated_Source\PSoC5/SteppeStep.c **** ********************************************************************************
 265:Generated_Source\PSoC5/SteppeStep.c **** *
 266:Generated_Source\PSoC5/SteppeStep.c **** * Summary:
 267:Generated_Source\PSoC5/SteppeStep.c **** *  This function selects which of the interrupt inputs may cause an interrupt.
 268:Generated_Source\PSoC5/SteppeStep.c **** *  The twosources are caputure and terminal.  One, both or neither may
 269:Generated_Source\PSoC5/SteppeStep.c **** *  be selected.
 270:Generated_Source\PSoC5/SteppeStep.c **** *
 271:Generated_Source\PSoC5/SteppeStep.c **** * Parameters:
 272:Generated_Source\PSoC5/SteppeStep.c **** *  interruptMode:   This parameter is used to enable interrups on either/or
 273:Generated_Source\PSoC5/SteppeStep.c **** *                   terminal count or capture.
 274:Generated_Source\PSoC5/SteppeStep.c **** *
 275:Generated_Source\PSoC5/SteppeStep.c **** * Return:
 276:Generated_Source\PSoC5/SteppeStep.c **** *  void
 277:Generated_Source\PSoC5/SteppeStep.c **** *
 278:Generated_Source\PSoC5/SteppeStep.c **** *******************************************************************************/
 279:Generated_Source\PSoC5/SteppeStep.c **** void SteppeStep_SetInterruptMode(uint8 interruptMode) 
 280:Generated_Source\PSoC5/SteppeStep.c **** {
  62              		.loc 1 280 0
ARM GAS  C:\Users\GEORGE~1\AppData\Local\Temp\ccOHECfC.s 			page 7


  63              		.cfi_startproc
  64              		@ args = 0, pretend = 0, frame = 0
  65              		@ frame_needed = 0, uses_anonymous_args = 0
  66              		@ link register save eliminated.
  67              	.LVL0:
 281:Generated_Source\PSoC5/SteppeStep.c ****     SteppeStep_STATUS_MASK = interruptMode;
  68              		.loc 1 281 0
  69 0000 014B     		ldr	r3, .L4
  70 0002 1870     		strb	r0, [r3]
  71 0004 7047     		bx	lr
  72              	.L5:
  73 0006 00BF     		.align	2
  74              	.L4:
  75 0008 8B640040 		.word	1073767563
  76              		.cfi_endproc
  77              	.LFE4:
  78              		.size	SteppeStep_SetInterruptMode, .-SteppeStep_SetInterruptMode
  79              		.section	.text.SteppeStep_SoftwareCapture,"ax",%progbits
  80              		.align	2
  81              		.global	SteppeStep_SoftwareCapture
  82              		.thumb
  83              		.thumb_func
  84              		.type	SteppeStep_SoftwareCapture, %function
  85              	SteppeStep_SoftwareCapture:
  86              	.LFB5:
 282:Generated_Source\PSoC5/SteppeStep.c **** }
 283:Generated_Source\PSoC5/SteppeStep.c **** 
 284:Generated_Source\PSoC5/SteppeStep.c **** 
 285:Generated_Source\PSoC5/SteppeStep.c **** /*******************************************************************************
 286:Generated_Source\PSoC5/SteppeStep.c **** * Function Name: SteppeStep_SoftwareCapture
 287:Generated_Source\PSoC5/SteppeStep.c **** ********************************************************************************
 288:Generated_Source\PSoC5/SteppeStep.c **** *
 289:Generated_Source\PSoC5/SteppeStep.c **** * Summary:
 290:Generated_Source\PSoC5/SteppeStep.c **** *  This function forces a capture independent of the capture signal.
 291:Generated_Source\PSoC5/SteppeStep.c **** *
 292:Generated_Source\PSoC5/SteppeStep.c **** * Parameters:
 293:Generated_Source\PSoC5/SteppeStep.c **** *  void
 294:Generated_Source\PSoC5/SteppeStep.c **** *
 295:Generated_Source\PSoC5/SteppeStep.c **** * Return:
 296:Generated_Source\PSoC5/SteppeStep.c **** *  void
 297:Generated_Source\PSoC5/SteppeStep.c **** *
 298:Generated_Source\PSoC5/SteppeStep.c **** * Side Effects:
 299:Generated_Source\PSoC5/SteppeStep.c **** *  An existing hardware capture could be overwritten.
 300:Generated_Source\PSoC5/SteppeStep.c **** *
 301:Generated_Source\PSoC5/SteppeStep.c **** *******************************************************************************/
 302:Generated_Source\PSoC5/SteppeStep.c **** void SteppeStep_SoftwareCapture(void) 
 303:Generated_Source\PSoC5/SteppeStep.c **** {
  87              		.loc 1 303 0
  88              		.cfi_startproc
  89              		@ args = 0, pretend = 0, frame = 0
  90              		@ frame_needed = 0, uses_anonymous_args = 0
  91              		@ link register save eliminated.
 304:Generated_Source\PSoC5/SteppeStep.c ****     /* Generate a software capture by reading the counter register */
 305:Generated_Source\PSoC5/SteppeStep.c ****     #if(SteppeStep_UsingFixedFunction)
 306:Generated_Source\PSoC5/SteppeStep.c ****         (void)CY_GET_REG16(SteppeStep_COUNTER_LSB_PTR);
 307:Generated_Source\PSoC5/SteppeStep.c ****     #else
 308:Generated_Source\PSoC5/SteppeStep.c ****         (void)CY_GET_REG8(SteppeStep_COUNTER_LSB_PTR_8BIT);
ARM GAS  C:\Users\GEORGE~1\AppData\Local\Temp\ccOHECfC.s 			page 8


  92              		.loc 1 308 0
  93 0000 014B     		ldr	r3, .L7
  94 0002 1B78     		ldrb	r3, [r3]	@ zero_extendqisi2
  95 0004 7047     		bx	lr
  96              	.L8:
  97 0006 00BF     		.align	2
  98              	.L7:
  99 0008 08640040 		.word	1073767432
 100              		.cfi_endproc
 101              	.LFE5:
 102              		.size	SteppeStep_SoftwareCapture, .-SteppeStep_SoftwareCapture
 103              		.section	.text.SteppeStep_ReadStatusRegister,"ax",%progbits
 104              		.align	2
 105              		.global	SteppeStep_ReadStatusRegister
 106              		.thumb
 107              		.thumb_func
 108              		.type	SteppeStep_ReadStatusRegister, %function
 109              	SteppeStep_ReadStatusRegister:
 110              	.LFB6:
 309:Generated_Source\PSoC5/SteppeStep.c ****     #endif/* (SteppeStep_UsingFixedFunction) */
 310:Generated_Source\PSoC5/SteppeStep.c ****     /* Capture Data is now in the FIFO */
 311:Generated_Source\PSoC5/SteppeStep.c **** }
 312:Generated_Source\PSoC5/SteppeStep.c **** 
 313:Generated_Source\PSoC5/SteppeStep.c **** 
 314:Generated_Source\PSoC5/SteppeStep.c **** /*******************************************************************************
 315:Generated_Source\PSoC5/SteppeStep.c **** * Function Name: SteppeStep_ReadStatusRegister
 316:Generated_Source\PSoC5/SteppeStep.c **** ********************************************************************************
 317:Generated_Source\PSoC5/SteppeStep.c **** *
 318:Generated_Source\PSoC5/SteppeStep.c **** * Summary:
 319:Generated_Source\PSoC5/SteppeStep.c **** *  Reads the status register and returns it's state. This function should use
 320:Generated_Source\PSoC5/SteppeStep.c **** *  defined types for the bit-field information as the bits in this register may
 321:Generated_Source\PSoC5/SteppeStep.c **** *  be permuteable.
 322:Generated_Source\PSoC5/SteppeStep.c **** *
 323:Generated_Source\PSoC5/SteppeStep.c **** * Parameters:
 324:Generated_Source\PSoC5/SteppeStep.c **** *  void
 325:Generated_Source\PSoC5/SteppeStep.c **** *
 326:Generated_Source\PSoC5/SteppeStep.c **** * Return:
 327:Generated_Source\PSoC5/SteppeStep.c **** *  The contents of the status register
 328:Generated_Source\PSoC5/SteppeStep.c **** *
 329:Generated_Source\PSoC5/SteppeStep.c **** * Side Effects:
 330:Generated_Source\PSoC5/SteppeStep.c **** *  Status register bits may be clear on read.
 331:Generated_Source\PSoC5/SteppeStep.c **** *
 332:Generated_Source\PSoC5/SteppeStep.c **** *******************************************************************************/
 333:Generated_Source\PSoC5/SteppeStep.c **** uint8   SteppeStep_ReadStatusRegister(void) 
 334:Generated_Source\PSoC5/SteppeStep.c **** {
 111              		.loc 1 334 0
 112              		.cfi_startproc
 113              		@ args = 0, pretend = 0, frame = 0
 114              		@ frame_needed = 0, uses_anonymous_args = 0
 115              		@ link register save eliminated.
 335:Generated_Source\PSoC5/SteppeStep.c ****     return (SteppeStep_STATUS);
 116              		.loc 1 335 0
 117 0000 014B     		ldr	r3, .L10
 118 0002 1878     		ldrb	r0, [r3]	@ zero_extendqisi2
 336:Generated_Source\PSoC5/SteppeStep.c **** }
 119              		.loc 1 336 0
 120 0004 7047     		bx	lr
ARM GAS  C:\Users\GEORGE~1\AppData\Local\Temp\ccOHECfC.s 			page 9


 121              	.L11:
 122 0006 00BF     		.align	2
 123              	.L10:
 124 0008 6B640040 		.word	1073767531
 125              		.cfi_endproc
 126              	.LFE6:
 127              		.size	SteppeStep_ReadStatusRegister, .-SteppeStep_ReadStatusRegister
 128              		.section	.text.SteppeStep_ReadPeriod,"ax",%progbits
 129              		.align	2
 130              		.global	SteppeStep_ReadPeriod
 131              		.thumb
 132              		.thumb_func
 133              		.type	SteppeStep_ReadPeriod, %function
 134              	SteppeStep_ReadPeriod:
 135              	.LFB7:
 337:Generated_Source\PSoC5/SteppeStep.c **** 
 338:Generated_Source\PSoC5/SteppeStep.c **** 
 339:Generated_Source\PSoC5/SteppeStep.c **** #if (!SteppeStep_UDB_CONTROL_REG_REMOVED) /* Remove API if control register is unused */
 340:Generated_Source\PSoC5/SteppeStep.c **** 
 341:Generated_Source\PSoC5/SteppeStep.c **** 
 342:Generated_Source\PSoC5/SteppeStep.c **** /*******************************************************************************
 343:Generated_Source\PSoC5/SteppeStep.c **** * Function Name: SteppeStep_ReadControlRegister
 344:Generated_Source\PSoC5/SteppeStep.c **** ********************************************************************************
 345:Generated_Source\PSoC5/SteppeStep.c **** *
 346:Generated_Source\PSoC5/SteppeStep.c **** * Summary:
 347:Generated_Source\PSoC5/SteppeStep.c **** *  Reads the control register and returns it's value.
 348:Generated_Source\PSoC5/SteppeStep.c **** *
 349:Generated_Source\PSoC5/SteppeStep.c **** * Parameters:
 350:Generated_Source\PSoC5/SteppeStep.c **** *  void
 351:Generated_Source\PSoC5/SteppeStep.c **** *
 352:Generated_Source\PSoC5/SteppeStep.c **** * Return:
 353:Generated_Source\PSoC5/SteppeStep.c **** *  The contents of the control register
 354:Generated_Source\PSoC5/SteppeStep.c **** *
 355:Generated_Source\PSoC5/SteppeStep.c **** *******************************************************************************/
 356:Generated_Source\PSoC5/SteppeStep.c **** uint8 SteppeStep_ReadControlRegister(void) 
 357:Generated_Source\PSoC5/SteppeStep.c **** {
 358:Generated_Source\PSoC5/SteppeStep.c ****     #if (!SteppeStep_UDB_CONTROL_REG_REMOVED) 
 359:Generated_Source\PSoC5/SteppeStep.c ****         return ((uint8)SteppeStep_CONTROL);
 360:Generated_Source\PSoC5/SteppeStep.c ****     #else
 361:Generated_Source\PSoC5/SteppeStep.c ****         return (0);
 362:Generated_Source\PSoC5/SteppeStep.c ****     #endif /* (!SteppeStep_UDB_CONTROL_REG_REMOVED) */
 363:Generated_Source\PSoC5/SteppeStep.c **** }
 364:Generated_Source\PSoC5/SteppeStep.c **** 
 365:Generated_Source\PSoC5/SteppeStep.c **** 
 366:Generated_Source\PSoC5/SteppeStep.c **** /*******************************************************************************
 367:Generated_Source\PSoC5/SteppeStep.c **** * Function Name: SteppeStep_WriteControlRegister
 368:Generated_Source\PSoC5/SteppeStep.c **** ********************************************************************************
 369:Generated_Source\PSoC5/SteppeStep.c **** *
 370:Generated_Source\PSoC5/SteppeStep.c **** * Summary:
 371:Generated_Source\PSoC5/SteppeStep.c **** *  Sets the bit-field of the control register.
 372:Generated_Source\PSoC5/SteppeStep.c **** *
 373:Generated_Source\PSoC5/SteppeStep.c **** * Parameters:
 374:Generated_Source\PSoC5/SteppeStep.c **** *  control: The contents of the control register
 375:Generated_Source\PSoC5/SteppeStep.c **** *
 376:Generated_Source\PSoC5/SteppeStep.c **** * Return:
 377:Generated_Source\PSoC5/SteppeStep.c **** *
 378:Generated_Source\PSoC5/SteppeStep.c **** *******************************************************************************/
ARM GAS  C:\Users\GEORGE~1\AppData\Local\Temp\ccOHECfC.s 			page 10


 379:Generated_Source\PSoC5/SteppeStep.c **** void SteppeStep_WriteControlRegister(uint8 control) 
 380:Generated_Source\PSoC5/SteppeStep.c **** {
 381:Generated_Source\PSoC5/SteppeStep.c ****     #if (!SteppeStep_UDB_CONTROL_REG_REMOVED) 
 382:Generated_Source\PSoC5/SteppeStep.c ****         SteppeStep_CONTROL = control;
 383:Generated_Source\PSoC5/SteppeStep.c ****     #else
 384:Generated_Source\PSoC5/SteppeStep.c ****         control = 0u;
 385:Generated_Source\PSoC5/SteppeStep.c ****     #endif /* (!SteppeStep_UDB_CONTROL_REG_REMOVED) */
 386:Generated_Source\PSoC5/SteppeStep.c **** }
 387:Generated_Source\PSoC5/SteppeStep.c **** 
 388:Generated_Source\PSoC5/SteppeStep.c **** #endif /* Remove API if control register is unused */
 389:Generated_Source\PSoC5/SteppeStep.c **** 
 390:Generated_Source\PSoC5/SteppeStep.c **** 
 391:Generated_Source\PSoC5/SteppeStep.c **** /*******************************************************************************
 392:Generated_Source\PSoC5/SteppeStep.c **** * Function Name: SteppeStep_ReadPeriod
 393:Generated_Source\PSoC5/SteppeStep.c **** ********************************************************************************
 394:Generated_Source\PSoC5/SteppeStep.c **** *
 395:Generated_Source\PSoC5/SteppeStep.c **** * Summary:
 396:Generated_Source\PSoC5/SteppeStep.c **** *  This function returns the current value of the Period.
 397:Generated_Source\PSoC5/SteppeStep.c **** *
 398:Generated_Source\PSoC5/SteppeStep.c **** * Parameters:
 399:Generated_Source\PSoC5/SteppeStep.c **** *  void
 400:Generated_Source\PSoC5/SteppeStep.c **** *
 401:Generated_Source\PSoC5/SteppeStep.c **** * Return:
 402:Generated_Source\PSoC5/SteppeStep.c **** *  The present value of the counter.
 403:Generated_Source\PSoC5/SteppeStep.c **** *
 404:Generated_Source\PSoC5/SteppeStep.c **** *******************************************************************************/
 405:Generated_Source\PSoC5/SteppeStep.c **** uint32 SteppeStep_ReadPeriod(void) 
 406:Generated_Source\PSoC5/SteppeStep.c **** {
 136              		.loc 1 406 0
 137              		.cfi_startproc
 138              		@ args = 0, pretend = 0, frame = 0
 139              		@ frame_needed = 0, uses_anonymous_args = 0
 140              		@ link register save eliminated.
 407:Generated_Source\PSoC5/SteppeStep.c ****    #if(SteppeStep_UsingFixedFunction)
 408:Generated_Source\PSoC5/SteppeStep.c ****        return ((uint32)CY_GET_REG16(SteppeStep_PERIOD_LSB_PTR));
 409:Generated_Source\PSoC5/SteppeStep.c ****    #else
 410:Generated_Source\PSoC5/SteppeStep.c ****        return (CY_GET_REG32(SteppeStep_PERIOD_LSB_PTR));
 141              		.loc 1 410 0
 142 0000 014B     		ldr	r3, .L13
 143 0002 1868     		ldr	r0, [r3]
 411:Generated_Source\PSoC5/SteppeStep.c ****    #endif /* (SteppeStep_UsingFixedFunction) */
 412:Generated_Source\PSoC5/SteppeStep.c **** }
 144              		.loc 1 412 0
 145 0004 7047     		bx	lr
 146              	.L14:
 147 0006 00BF     		.align	2
 148              	.L13:
 149 0008 28640040 		.word	1073767464
 150              		.cfi_endproc
 151              	.LFE7:
 152              		.size	SteppeStep_ReadPeriod, .-SteppeStep_ReadPeriod
 153              		.section	.text.SteppeStep_WritePeriod,"ax",%progbits
 154              		.align	2
 155              		.global	SteppeStep_WritePeriod
 156              		.thumb
 157              		.thumb_func
 158              		.type	SteppeStep_WritePeriod, %function
ARM GAS  C:\Users\GEORGE~1\AppData\Local\Temp\ccOHECfC.s 			page 11


 159              	SteppeStep_WritePeriod:
 160              	.LFB8:
 413:Generated_Source\PSoC5/SteppeStep.c **** 
 414:Generated_Source\PSoC5/SteppeStep.c **** 
 415:Generated_Source\PSoC5/SteppeStep.c **** /*******************************************************************************
 416:Generated_Source\PSoC5/SteppeStep.c **** * Function Name: SteppeStep_WritePeriod
 417:Generated_Source\PSoC5/SteppeStep.c **** ********************************************************************************
 418:Generated_Source\PSoC5/SteppeStep.c **** *
 419:Generated_Source\PSoC5/SteppeStep.c **** * Summary:
 420:Generated_Source\PSoC5/SteppeStep.c **** *  This function is used to change the period of the counter.  The new period
 421:Generated_Source\PSoC5/SteppeStep.c **** *  will be loaded the next time terminal count is detected.
 422:Generated_Source\PSoC5/SteppeStep.c **** *
 423:Generated_Source\PSoC5/SteppeStep.c **** * Parameters:
 424:Generated_Source\PSoC5/SteppeStep.c **** *  period: This value may be between 1 and (2^Resolution)-1.  A value of 0 will
 425:Generated_Source\PSoC5/SteppeStep.c **** *          result in the counter remaining at zero.
 426:Generated_Source\PSoC5/SteppeStep.c **** *
 427:Generated_Source\PSoC5/SteppeStep.c **** * Return:
 428:Generated_Source\PSoC5/SteppeStep.c **** *  void
 429:Generated_Source\PSoC5/SteppeStep.c **** *
 430:Generated_Source\PSoC5/SteppeStep.c **** *******************************************************************************/
 431:Generated_Source\PSoC5/SteppeStep.c **** void SteppeStep_WritePeriod(uint32 period) 
 432:Generated_Source\PSoC5/SteppeStep.c **** {
 161              		.loc 1 432 0
 162              		.cfi_startproc
 163              		@ args = 0, pretend = 0, frame = 0
 164              		@ frame_needed = 0, uses_anonymous_args = 0
 165              		@ link register save eliminated.
 166              	.LVL1:
 433:Generated_Source\PSoC5/SteppeStep.c ****     #if(SteppeStep_UsingFixedFunction)
 434:Generated_Source\PSoC5/SteppeStep.c ****         uint16 period_temp = (uint16)period;
 435:Generated_Source\PSoC5/SteppeStep.c ****         CY_SET_REG16(SteppeStep_PERIOD_LSB_PTR, period_temp);
 436:Generated_Source\PSoC5/SteppeStep.c ****     #else
 437:Generated_Source\PSoC5/SteppeStep.c ****         CY_SET_REG32(SteppeStep_PERIOD_LSB_PTR, period);
 167              		.loc 1 437 0
 168 0000 014B     		ldr	r3, .L16
 169 0002 1860     		str	r0, [r3]
 170 0004 7047     		bx	lr
 171              	.L17:
 172 0006 00BF     		.align	2
 173              	.L16:
 174 0008 28640040 		.word	1073767464
 175              		.cfi_endproc
 176              	.LFE8:
 177              		.size	SteppeStep_WritePeriod, .-SteppeStep_WritePeriod
 178              		.section	.text.SteppeStep_ReadCapture,"ax",%progbits
 179              		.align	2
 180              		.global	SteppeStep_ReadCapture
 181              		.thumb
 182              		.thumb_func
 183              		.type	SteppeStep_ReadCapture, %function
 184              	SteppeStep_ReadCapture:
 185              	.LFB9:
 438:Generated_Source\PSoC5/SteppeStep.c ****     #endif /*Write Period value with appropriate resolution suffix depending on UDB or fixed functi
 439:Generated_Source\PSoC5/SteppeStep.c **** }
 440:Generated_Source\PSoC5/SteppeStep.c **** 
 441:Generated_Source\PSoC5/SteppeStep.c **** 
 442:Generated_Source\PSoC5/SteppeStep.c **** /*******************************************************************************
ARM GAS  C:\Users\GEORGE~1\AppData\Local\Temp\ccOHECfC.s 			page 12


 443:Generated_Source\PSoC5/SteppeStep.c **** * Function Name: SteppeStep_ReadCapture
 444:Generated_Source\PSoC5/SteppeStep.c **** ********************************************************************************
 445:Generated_Source\PSoC5/SteppeStep.c **** *
 446:Generated_Source\PSoC5/SteppeStep.c **** * Summary:
 447:Generated_Source\PSoC5/SteppeStep.c **** *  This function returns the last value captured.
 448:Generated_Source\PSoC5/SteppeStep.c **** *
 449:Generated_Source\PSoC5/SteppeStep.c **** * Parameters:
 450:Generated_Source\PSoC5/SteppeStep.c **** *  void
 451:Generated_Source\PSoC5/SteppeStep.c **** *
 452:Generated_Source\PSoC5/SteppeStep.c **** * Return:
 453:Generated_Source\PSoC5/SteppeStep.c **** *  Present Capture value.
 454:Generated_Source\PSoC5/SteppeStep.c **** *
 455:Generated_Source\PSoC5/SteppeStep.c **** *******************************************************************************/
 456:Generated_Source\PSoC5/SteppeStep.c **** uint32 SteppeStep_ReadCapture(void) 
 457:Generated_Source\PSoC5/SteppeStep.c **** {
 186              		.loc 1 457 0
 187              		.cfi_startproc
 188              		@ args = 0, pretend = 0, frame = 0
 189              		@ frame_needed = 0, uses_anonymous_args = 0
 190              		@ link register save eliminated.
 458:Generated_Source\PSoC5/SteppeStep.c ****    #if(SteppeStep_UsingFixedFunction)
 459:Generated_Source\PSoC5/SteppeStep.c ****        return ((uint32)CY_GET_REG16(SteppeStep_CAPTURE_LSB_PTR));
 460:Generated_Source\PSoC5/SteppeStep.c ****    #else
 461:Generated_Source\PSoC5/SteppeStep.c ****        return (CY_GET_REG32(SteppeStep_CAPTURE_LSB_PTR));
 191              		.loc 1 461 0
 192 0000 014B     		ldr	r3, .L19
 193 0002 1868     		ldr	r0, [r3]
 462:Generated_Source\PSoC5/SteppeStep.c ****    #endif /* (SteppeStep_UsingFixedFunction) */
 463:Generated_Source\PSoC5/SteppeStep.c **** }
 194              		.loc 1 463 0
 195 0004 7047     		bx	lr
 196              	.L20:
 197 0006 00BF     		.align	2
 198              	.L19:
 199 0008 48640040 		.word	1073767496
 200              		.cfi_endproc
 201              	.LFE9:
 202              		.size	SteppeStep_ReadCapture, .-SteppeStep_ReadCapture
 203              		.section	.text.SteppeStep_WriteCounter,"ax",%progbits
 204              		.align	2
 205              		.global	SteppeStep_WriteCounter
 206              		.thumb
 207              		.thumb_func
 208              		.type	SteppeStep_WriteCounter, %function
 209              	SteppeStep_WriteCounter:
 210              	.LFB10:
 464:Generated_Source\PSoC5/SteppeStep.c **** 
 465:Generated_Source\PSoC5/SteppeStep.c **** 
 466:Generated_Source\PSoC5/SteppeStep.c **** /*******************************************************************************
 467:Generated_Source\PSoC5/SteppeStep.c **** * Function Name: SteppeStep_WriteCounter
 468:Generated_Source\PSoC5/SteppeStep.c **** ********************************************************************************
 469:Generated_Source\PSoC5/SteppeStep.c **** *
 470:Generated_Source\PSoC5/SteppeStep.c **** * Summary:
 471:Generated_Source\PSoC5/SteppeStep.c **** *  This funtion is used to set the counter to a specific value
 472:Generated_Source\PSoC5/SteppeStep.c **** *
 473:Generated_Source\PSoC5/SteppeStep.c **** * Parameters:
 474:Generated_Source\PSoC5/SteppeStep.c **** *  counter:  New counter value.
ARM GAS  C:\Users\GEORGE~1\AppData\Local\Temp\ccOHECfC.s 			page 13


 475:Generated_Source\PSoC5/SteppeStep.c **** *
 476:Generated_Source\PSoC5/SteppeStep.c **** * Return:
 477:Generated_Source\PSoC5/SteppeStep.c **** *  void
 478:Generated_Source\PSoC5/SteppeStep.c **** *
 479:Generated_Source\PSoC5/SteppeStep.c **** *******************************************************************************/
 480:Generated_Source\PSoC5/SteppeStep.c **** void SteppeStep_WriteCounter(uint32 counter) 
 481:Generated_Source\PSoC5/SteppeStep.c **** {
 211              		.loc 1 481 0
 212              		.cfi_startproc
 213              		@ args = 0, pretend = 0, frame = 0
 214              		@ frame_needed = 0, uses_anonymous_args = 0
 215              		@ link register save eliminated.
 216              	.LVL2:
 482:Generated_Source\PSoC5/SteppeStep.c ****    #if(SteppeStep_UsingFixedFunction)
 483:Generated_Source\PSoC5/SteppeStep.c ****         /* This functionality is removed until a FixedFunction HW update to
 484:Generated_Source\PSoC5/SteppeStep.c ****          * allow this register to be written
 485:Generated_Source\PSoC5/SteppeStep.c ****          */
 486:Generated_Source\PSoC5/SteppeStep.c ****         CY_SET_REG16(SteppeStep_COUNTER_LSB_PTR, (uint16)counter);
 487:Generated_Source\PSoC5/SteppeStep.c ****         
 488:Generated_Source\PSoC5/SteppeStep.c ****     #else
 489:Generated_Source\PSoC5/SteppeStep.c ****         CY_SET_REG32(SteppeStep_COUNTER_LSB_PTR, counter);
 217              		.loc 1 489 0
 218 0000 014B     		ldr	r3, .L22
 219 0002 1860     		str	r0, [r3]
 220 0004 7047     		bx	lr
 221              	.L23:
 222 0006 00BF     		.align	2
 223              	.L22:
 224 0008 08640040 		.word	1073767432
 225              		.cfi_endproc
 226              	.LFE10:
 227              		.size	SteppeStep_WriteCounter, .-SteppeStep_WriteCounter
 228              		.section	.text.SteppeStep_ReadCounter,"ax",%progbits
 229              		.align	2
 230              		.global	SteppeStep_ReadCounter
 231              		.thumb
 232              		.thumb_func
 233              		.type	SteppeStep_ReadCounter, %function
 234              	SteppeStep_ReadCounter:
 235              	.LFB11:
 490:Generated_Source\PSoC5/SteppeStep.c ****     #endif /* Set Write Counter only for the UDB implementation (Write Counter not available in fix
 491:Generated_Source\PSoC5/SteppeStep.c **** }
 492:Generated_Source\PSoC5/SteppeStep.c **** 
 493:Generated_Source\PSoC5/SteppeStep.c **** 
 494:Generated_Source\PSoC5/SteppeStep.c **** /*******************************************************************************
 495:Generated_Source\PSoC5/SteppeStep.c **** * Function Name: SteppeStep_ReadCounter
 496:Generated_Source\PSoC5/SteppeStep.c **** ********************************************************************************
 497:Generated_Source\PSoC5/SteppeStep.c **** *
 498:Generated_Source\PSoC5/SteppeStep.c **** * Summary:
 499:Generated_Source\PSoC5/SteppeStep.c **** *  This function returns the current counter value.
 500:Generated_Source\PSoC5/SteppeStep.c **** *
 501:Generated_Source\PSoC5/SteppeStep.c **** * Parameters:
 502:Generated_Source\PSoC5/SteppeStep.c **** *  void
 503:Generated_Source\PSoC5/SteppeStep.c **** *
 504:Generated_Source\PSoC5/SteppeStep.c **** * Return:
 505:Generated_Source\PSoC5/SteppeStep.c **** *  Present compare value.
 506:Generated_Source\PSoC5/SteppeStep.c **** *
ARM GAS  C:\Users\GEORGE~1\AppData\Local\Temp\ccOHECfC.s 			page 14


 507:Generated_Source\PSoC5/SteppeStep.c **** *******************************************************************************/
 508:Generated_Source\PSoC5/SteppeStep.c **** uint32 SteppeStep_ReadCounter(void) 
 509:Generated_Source\PSoC5/SteppeStep.c **** {
 236              		.loc 1 509 0
 237              		.cfi_startproc
 238              		@ args = 0, pretend = 0, frame = 0
 239              		@ frame_needed = 0, uses_anonymous_args = 0
 240              		@ link register save eliminated.
 510:Generated_Source\PSoC5/SteppeStep.c ****     /* Force capture by reading Accumulator */
 511:Generated_Source\PSoC5/SteppeStep.c ****     /* Must first do a software capture to be able to read the counter */
 512:Generated_Source\PSoC5/SteppeStep.c ****     /* It is up to the user code to make sure there isn't already captured data in the FIFO */
 513:Generated_Source\PSoC5/SteppeStep.c ****     #if(SteppeStep_UsingFixedFunction)
 514:Generated_Source\PSoC5/SteppeStep.c ****         (void)CY_GET_REG16(SteppeStep_COUNTER_LSB_PTR);
 515:Generated_Source\PSoC5/SteppeStep.c ****     #else
 516:Generated_Source\PSoC5/SteppeStep.c ****         (void)CY_GET_REG8(SteppeStep_COUNTER_LSB_PTR_8BIT);
 241              		.loc 1 516 0
 242 0000 024B     		ldr	r3, .L25
 243 0002 1B78     		ldrb	r3, [r3]	@ zero_extendqisi2
 517:Generated_Source\PSoC5/SteppeStep.c ****     #endif/* (SteppeStep_UsingFixedFunction) */
 518:Generated_Source\PSoC5/SteppeStep.c **** 
 519:Generated_Source\PSoC5/SteppeStep.c ****     /* Read the data from the FIFO (or capture register for Fixed Function)*/
 520:Generated_Source\PSoC5/SteppeStep.c ****     #if(SteppeStep_UsingFixedFunction)
 521:Generated_Source\PSoC5/SteppeStep.c ****         return ((uint32)CY_GET_REG16(SteppeStep_CAPTURE_LSB_PTR));
 522:Generated_Source\PSoC5/SteppeStep.c ****     #else
 523:Generated_Source\PSoC5/SteppeStep.c ****         return (CY_GET_REG32(SteppeStep_CAPTURE_LSB_PTR));
 244              		.loc 1 523 0
 245 0004 024B     		ldr	r3, .L25+4
 246 0006 1868     		ldr	r0, [r3]
 524:Generated_Source\PSoC5/SteppeStep.c ****     #endif /* (SteppeStep_UsingFixedFunction) */
 525:Generated_Source\PSoC5/SteppeStep.c **** }
 247              		.loc 1 525 0
 248 0008 7047     		bx	lr
 249              	.L26:
 250 000a 00BF     		.align	2
 251              	.L25:
 252 000c 08640040 		.word	1073767432
 253 0010 48640040 		.word	1073767496
 254              		.cfi_endproc
 255              	.LFE11:
 256              		.size	SteppeStep_ReadCounter, .-SteppeStep_ReadCounter
 257              		.section	.text.SteppeStep_ClearFIFO,"ax",%progbits
 258              		.align	2
 259              		.global	SteppeStep_ClearFIFO
 260              		.thumb
 261              		.thumb_func
 262              		.type	SteppeStep_ClearFIFO, %function
 263              	SteppeStep_ClearFIFO:
 264              	.LFB12:
 526:Generated_Source\PSoC5/SteppeStep.c **** 
 527:Generated_Source\PSoC5/SteppeStep.c **** 
 528:Generated_Source\PSoC5/SteppeStep.c **** #if(!SteppeStep_UsingFixedFunction) /* UDB Specific Functions */
 529:Generated_Source\PSoC5/SteppeStep.c **** 
 530:Generated_Source\PSoC5/SteppeStep.c ****     
 531:Generated_Source\PSoC5/SteppeStep.c **** /*******************************************************************************
 532:Generated_Source\PSoC5/SteppeStep.c ****  * The functions below this point are only available using the UDB
 533:Generated_Source\PSoC5/SteppeStep.c ****  * implementation.  If a feature is selected, then the API is enabled.
 534:Generated_Source\PSoC5/SteppeStep.c ****  ******************************************************************************/
ARM GAS  C:\Users\GEORGE~1\AppData\Local\Temp\ccOHECfC.s 			page 15


 535:Generated_Source\PSoC5/SteppeStep.c **** 
 536:Generated_Source\PSoC5/SteppeStep.c **** 
 537:Generated_Source\PSoC5/SteppeStep.c **** #if (SteppeStep_SoftwareCaptureMode)
 538:Generated_Source\PSoC5/SteppeStep.c **** 
 539:Generated_Source\PSoC5/SteppeStep.c **** 
 540:Generated_Source\PSoC5/SteppeStep.c **** /*******************************************************************************
 541:Generated_Source\PSoC5/SteppeStep.c **** * Function Name: SteppeStep_SetCaptureMode
 542:Generated_Source\PSoC5/SteppeStep.c **** ********************************************************************************
 543:Generated_Source\PSoC5/SteppeStep.c **** *
 544:Generated_Source\PSoC5/SteppeStep.c **** * Summary:
 545:Generated_Source\PSoC5/SteppeStep.c **** *  This function sets the capture mode to either rising or falling edge.
 546:Generated_Source\PSoC5/SteppeStep.c **** *
 547:Generated_Source\PSoC5/SteppeStep.c **** * Parameters:
 548:Generated_Source\PSoC5/SteppeStep.c **** *  captureMode: This parameter sets the capture mode of the UDB capture feature
 549:Generated_Source\PSoC5/SteppeStep.c **** *  The parameter values are defined using the
 550:Generated_Source\PSoC5/SteppeStep.c **** *  #define SteppeStep__B_TIMER__CM_NONE 0
 551:Generated_Source\PSoC5/SteppeStep.c **** #define SteppeStep__B_TIMER__CM_RISINGEDGE 1
 552:Generated_Source\PSoC5/SteppeStep.c **** #define SteppeStep__B_TIMER__CM_FALLINGEDGE 2
 553:Generated_Source\PSoC5/SteppeStep.c **** #define SteppeStep__B_TIMER__CM_EITHEREDGE 3
 554:Generated_Source\PSoC5/SteppeStep.c **** #define SteppeStep__B_TIMER__CM_SOFTWARE 4
 555:Generated_Source\PSoC5/SteppeStep.c ****  identifiers
 556:Generated_Source\PSoC5/SteppeStep.c **** *  The following are the possible values of the parameter
 557:Generated_Source\PSoC5/SteppeStep.c **** *  SteppeStep__B_TIMER__CM_NONE        - Set Capture mode to None
 558:Generated_Source\PSoC5/SteppeStep.c **** *  SteppeStep__B_TIMER__CM_RISINGEDGE  - Rising edge of Capture input
 559:Generated_Source\PSoC5/SteppeStep.c **** *  SteppeStep__B_TIMER__CM_FALLINGEDGE - Falling edge of Capture input
 560:Generated_Source\PSoC5/SteppeStep.c **** *  SteppeStep__B_TIMER__CM_EITHEREDGE  - Either edge of Capture input
 561:Generated_Source\PSoC5/SteppeStep.c **** *
 562:Generated_Source\PSoC5/SteppeStep.c **** * Return:
 563:Generated_Source\PSoC5/SteppeStep.c **** *  void
 564:Generated_Source\PSoC5/SteppeStep.c **** *
 565:Generated_Source\PSoC5/SteppeStep.c **** *******************************************************************************/
 566:Generated_Source\PSoC5/SteppeStep.c **** void SteppeStep_SetCaptureMode(uint8 captureMode) 
 567:Generated_Source\PSoC5/SteppeStep.c **** {
 568:Generated_Source\PSoC5/SteppeStep.c ****     /* This must only set to two bits of the control register associated */
 569:Generated_Source\PSoC5/SteppeStep.c ****     captureMode = ((uint8)((uint8)captureMode << SteppeStep_CTRL_CAP_MODE_SHIFT));
 570:Generated_Source\PSoC5/SteppeStep.c ****     captureMode &= (SteppeStep_CTRL_CAP_MODE_MASK);
 571:Generated_Source\PSoC5/SteppeStep.c **** 
 572:Generated_Source\PSoC5/SteppeStep.c ****     #if (!SteppeStep_UDB_CONTROL_REG_REMOVED)
 573:Generated_Source\PSoC5/SteppeStep.c ****         /* Clear the Current Setting */
 574:Generated_Source\PSoC5/SteppeStep.c ****         SteppeStep_CONTROL &= ((uint8)(~SteppeStep_CTRL_CAP_MODE_MASK));
 575:Generated_Source\PSoC5/SteppeStep.c **** 
 576:Generated_Source\PSoC5/SteppeStep.c ****         /* Write The New Setting */
 577:Generated_Source\PSoC5/SteppeStep.c ****         SteppeStep_CONTROL |= captureMode;
 578:Generated_Source\PSoC5/SteppeStep.c ****     #endif /* (!SteppeStep_UDB_CONTROL_REG_REMOVED) */
 579:Generated_Source\PSoC5/SteppeStep.c **** }
 580:Generated_Source\PSoC5/SteppeStep.c **** #endif /* Remove API if Capture Mode is not Software Controlled */
 581:Generated_Source\PSoC5/SteppeStep.c **** 
 582:Generated_Source\PSoC5/SteppeStep.c **** 
 583:Generated_Source\PSoC5/SteppeStep.c **** #if (SteppeStep_SoftwareTriggerMode)
 584:Generated_Source\PSoC5/SteppeStep.c **** 
 585:Generated_Source\PSoC5/SteppeStep.c **** 
 586:Generated_Source\PSoC5/SteppeStep.c **** /*******************************************************************************
 587:Generated_Source\PSoC5/SteppeStep.c **** * Function Name: SteppeStep_SetTriggerMode
 588:Generated_Source\PSoC5/SteppeStep.c **** ********************************************************************************
 589:Generated_Source\PSoC5/SteppeStep.c **** *
 590:Generated_Source\PSoC5/SteppeStep.c **** * Summary:
 591:Generated_Source\PSoC5/SteppeStep.c **** *  This function sets the trigger input mode
ARM GAS  C:\Users\GEORGE~1\AppData\Local\Temp\ccOHECfC.s 			page 16


 592:Generated_Source\PSoC5/SteppeStep.c **** *
 593:Generated_Source\PSoC5/SteppeStep.c **** * Parameters:
 594:Generated_Source\PSoC5/SteppeStep.c **** *  triggerMode: Pass one of the pre-defined Trigger Modes (except Software)
 595:Generated_Source\PSoC5/SteppeStep.c ****     #define SteppeStep__B_TIMER__TM_NONE 0x00u
 596:Generated_Source\PSoC5/SteppeStep.c ****     #define SteppeStep__B_TIMER__TM_RISINGEDGE 0x04u
 597:Generated_Source\PSoC5/SteppeStep.c ****     #define SteppeStep__B_TIMER__TM_FALLINGEDGE 0x08u
 598:Generated_Source\PSoC5/SteppeStep.c ****     #define SteppeStep__B_TIMER__TM_EITHEREDGE 0x0Cu
 599:Generated_Source\PSoC5/SteppeStep.c ****     #define SteppeStep__B_TIMER__TM_SOFTWARE 0x10u
 600:Generated_Source\PSoC5/SteppeStep.c **** *
 601:Generated_Source\PSoC5/SteppeStep.c **** * Return:
 602:Generated_Source\PSoC5/SteppeStep.c **** *  void
 603:Generated_Source\PSoC5/SteppeStep.c **** *
 604:Generated_Source\PSoC5/SteppeStep.c **** *******************************************************************************/
 605:Generated_Source\PSoC5/SteppeStep.c **** void SteppeStep_SetTriggerMode(uint8 triggerMode) 
 606:Generated_Source\PSoC5/SteppeStep.c **** {
 607:Generated_Source\PSoC5/SteppeStep.c ****     /* This must only set to two bits of the control register associated */
 608:Generated_Source\PSoC5/SteppeStep.c ****     triggerMode &= SteppeStep_CTRL_TRIG_MODE_MASK;
 609:Generated_Source\PSoC5/SteppeStep.c **** 
 610:Generated_Source\PSoC5/SteppeStep.c ****     #if (!SteppeStep_UDB_CONTROL_REG_REMOVED)   /* Remove assignment if control register is removed
 611:Generated_Source\PSoC5/SteppeStep.c ****     
 612:Generated_Source\PSoC5/SteppeStep.c ****         /* Clear the Current Setting */
 613:Generated_Source\PSoC5/SteppeStep.c ****         SteppeStep_CONTROL &= ((uint8)(~SteppeStep_CTRL_TRIG_MODE_MASK));
 614:Generated_Source\PSoC5/SteppeStep.c **** 
 615:Generated_Source\PSoC5/SteppeStep.c ****         /* Write The New Setting */
 616:Generated_Source\PSoC5/SteppeStep.c ****         SteppeStep_CONTROL |= (triggerMode | SteppeStep__B_TIMER__TM_SOFTWARE);
 617:Generated_Source\PSoC5/SteppeStep.c ****     #endif /* Remove code section if control register is not used */
 618:Generated_Source\PSoC5/SteppeStep.c **** }
 619:Generated_Source\PSoC5/SteppeStep.c **** #endif /* Remove API if Trigger Mode is not Software Controlled */
 620:Generated_Source\PSoC5/SteppeStep.c **** 
 621:Generated_Source\PSoC5/SteppeStep.c **** #if (SteppeStep_EnableTriggerMode)
 622:Generated_Source\PSoC5/SteppeStep.c **** 
 623:Generated_Source\PSoC5/SteppeStep.c **** 
 624:Generated_Source\PSoC5/SteppeStep.c **** /*******************************************************************************
 625:Generated_Source\PSoC5/SteppeStep.c **** * Function Name: SteppeStep_EnableTrigger
 626:Generated_Source\PSoC5/SteppeStep.c **** ********************************************************************************
 627:Generated_Source\PSoC5/SteppeStep.c **** *
 628:Generated_Source\PSoC5/SteppeStep.c **** * Summary:
 629:Generated_Source\PSoC5/SteppeStep.c **** *  Sets the control bit enabling Hardware Trigger mode
 630:Generated_Source\PSoC5/SteppeStep.c **** *
 631:Generated_Source\PSoC5/SteppeStep.c **** * Parameters:
 632:Generated_Source\PSoC5/SteppeStep.c **** *  void
 633:Generated_Source\PSoC5/SteppeStep.c **** *
 634:Generated_Source\PSoC5/SteppeStep.c **** * Return:
 635:Generated_Source\PSoC5/SteppeStep.c **** *  void
 636:Generated_Source\PSoC5/SteppeStep.c **** *
 637:Generated_Source\PSoC5/SteppeStep.c **** *******************************************************************************/
 638:Generated_Source\PSoC5/SteppeStep.c **** void SteppeStep_EnableTrigger(void) 
 639:Generated_Source\PSoC5/SteppeStep.c **** {
 640:Generated_Source\PSoC5/SteppeStep.c ****     #if (!SteppeStep_UDB_CONTROL_REG_REMOVED)   /* Remove assignment if control register is removed
 641:Generated_Source\PSoC5/SteppeStep.c ****         SteppeStep_CONTROL |= SteppeStep_CTRL_TRIG_EN;
 642:Generated_Source\PSoC5/SteppeStep.c ****     #endif /* Remove code section if control register is not used */
 643:Generated_Source\PSoC5/SteppeStep.c **** }
 644:Generated_Source\PSoC5/SteppeStep.c **** 
 645:Generated_Source\PSoC5/SteppeStep.c **** 
 646:Generated_Source\PSoC5/SteppeStep.c **** /*******************************************************************************
 647:Generated_Source\PSoC5/SteppeStep.c **** * Function Name: SteppeStep_DisableTrigger
 648:Generated_Source\PSoC5/SteppeStep.c **** ********************************************************************************
ARM GAS  C:\Users\GEORGE~1\AppData\Local\Temp\ccOHECfC.s 			page 17


 649:Generated_Source\PSoC5/SteppeStep.c **** *
 650:Generated_Source\PSoC5/SteppeStep.c **** * Summary:
 651:Generated_Source\PSoC5/SteppeStep.c **** *  Clears the control bit enabling Hardware Trigger mode
 652:Generated_Source\PSoC5/SteppeStep.c **** *
 653:Generated_Source\PSoC5/SteppeStep.c **** * Parameters:
 654:Generated_Source\PSoC5/SteppeStep.c **** *  void
 655:Generated_Source\PSoC5/SteppeStep.c **** *
 656:Generated_Source\PSoC5/SteppeStep.c **** * Return:
 657:Generated_Source\PSoC5/SteppeStep.c **** *  void
 658:Generated_Source\PSoC5/SteppeStep.c **** *
 659:Generated_Source\PSoC5/SteppeStep.c **** *******************************************************************************/
 660:Generated_Source\PSoC5/SteppeStep.c **** void SteppeStep_DisableTrigger(void) 
 661:Generated_Source\PSoC5/SteppeStep.c **** {
 662:Generated_Source\PSoC5/SteppeStep.c ****     #if (!SteppeStep_UDB_CONTROL_REG_REMOVED )   /* Remove assignment if control register is remove
 663:Generated_Source\PSoC5/SteppeStep.c ****         SteppeStep_CONTROL &= ((uint8)(~SteppeStep_CTRL_TRIG_EN));
 664:Generated_Source\PSoC5/SteppeStep.c ****     #endif /* Remove code section if control register is not used */
 665:Generated_Source\PSoC5/SteppeStep.c **** }
 666:Generated_Source\PSoC5/SteppeStep.c **** #endif /* Remove API is Trigger Mode is set to None */
 667:Generated_Source\PSoC5/SteppeStep.c **** 
 668:Generated_Source\PSoC5/SteppeStep.c **** #if(SteppeStep_InterruptOnCaptureCount)
 669:Generated_Source\PSoC5/SteppeStep.c **** 
 670:Generated_Source\PSoC5/SteppeStep.c **** 
 671:Generated_Source\PSoC5/SteppeStep.c **** /*******************************************************************************
 672:Generated_Source\PSoC5/SteppeStep.c **** * Function Name: SteppeStep_SetInterruptCount
 673:Generated_Source\PSoC5/SteppeStep.c **** ********************************************************************************
 674:Generated_Source\PSoC5/SteppeStep.c **** *
 675:Generated_Source\PSoC5/SteppeStep.c **** * Summary:
 676:Generated_Source\PSoC5/SteppeStep.c **** *  This function sets the capture count before an interrupt is triggered.
 677:Generated_Source\PSoC5/SteppeStep.c **** *
 678:Generated_Source\PSoC5/SteppeStep.c **** * Parameters:
 679:Generated_Source\PSoC5/SteppeStep.c **** *  interruptCount:  A value between 0 and 3 is valid.  If the value is 0, then
 680:Generated_Source\PSoC5/SteppeStep.c **** *                   an interrupt will occur each time a capture occurs.
 681:Generated_Source\PSoC5/SteppeStep.c **** *                   A value of 1 to 3 will cause the interrupt
 682:Generated_Source\PSoC5/SteppeStep.c **** *                   to delay by the same number of captures.
 683:Generated_Source\PSoC5/SteppeStep.c **** *
 684:Generated_Source\PSoC5/SteppeStep.c **** * Return:
 685:Generated_Source\PSoC5/SteppeStep.c **** *  void
 686:Generated_Source\PSoC5/SteppeStep.c **** *
 687:Generated_Source\PSoC5/SteppeStep.c **** *******************************************************************************/
 688:Generated_Source\PSoC5/SteppeStep.c **** void SteppeStep_SetInterruptCount(uint8 interruptCount) 
 689:Generated_Source\PSoC5/SteppeStep.c **** {
 690:Generated_Source\PSoC5/SteppeStep.c ****     /* This must only set to two bits of the control register associated */
 691:Generated_Source\PSoC5/SteppeStep.c ****     interruptCount &= SteppeStep_CTRL_INTCNT_MASK;
 692:Generated_Source\PSoC5/SteppeStep.c **** 
 693:Generated_Source\PSoC5/SteppeStep.c ****     #if (!SteppeStep_UDB_CONTROL_REG_REMOVED)
 694:Generated_Source\PSoC5/SteppeStep.c ****         /* Clear the Current Setting */
 695:Generated_Source\PSoC5/SteppeStep.c ****         SteppeStep_CONTROL &= ((uint8)(~SteppeStep_CTRL_INTCNT_MASK));
 696:Generated_Source\PSoC5/SteppeStep.c ****         /* Write The New Setting */
 697:Generated_Source\PSoC5/SteppeStep.c ****         SteppeStep_CONTROL |= interruptCount;
 698:Generated_Source\PSoC5/SteppeStep.c ****     #endif /* (!SteppeStep_UDB_CONTROL_REG_REMOVED) */
 699:Generated_Source\PSoC5/SteppeStep.c **** }
 700:Generated_Source\PSoC5/SteppeStep.c **** #endif /* SteppeStep_InterruptOnCaptureCount */
 701:Generated_Source\PSoC5/SteppeStep.c **** 
 702:Generated_Source\PSoC5/SteppeStep.c **** 
 703:Generated_Source\PSoC5/SteppeStep.c **** #if (SteppeStep_UsingHWCaptureCounter)
 704:Generated_Source\PSoC5/SteppeStep.c **** 
 705:Generated_Source\PSoC5/SteppeStep.c **** 
ARM GAS  C:\Users\GEORGE~1\AppData\Local\Temp\ccOHECfC.s 			page 18


 706:Generated_Source\PSoC5/SteppeStep.c **** /*******************************************************************************
 707:Generated_Source\PSoC5/SteppeStep.c **** * Function Name: SteppeStep_SetCaptureCount
 708:Generated_Source\PSoC5/SteppeStep.c **** ********************************************************************************
 709:Generated_Source\PSoC5/SteppeStep.c **** *
 710:Generated_Source\PSoC5/SteppeStep.c **** * Summary:
 711:Generated_Source\PSoC5/SteppeStep.c **** *  This function sets the capture count
 712:Generated_Source\PSoC5/SteppeStep.c **** *
 713:Generated_Source\PSoC5/SteppeStep.c **** * Parameters:
 714:Generated_Source\PSoC5/SteppeStep.c **** *  captureCount: A value between 2 and 127 inclusive is valid.  A value of 1
 715:Generated_Source\PSoC5/SteppeStep.c **** *                to 127 will cause the interrupt to delay by the same number of
 716:Generated_Source\PSoC5/SteppeStep.c **** *                captures.
 717:Generated_Source\PSoC5/SteppeStep.c **** *
 718:Generated_Source\PSoC5/SteppeStep.c **** * Return:
 719:Generated_Source\PSoC5/SteppeStep.c **** *  void
 720:Generated_Source\PSoC5/SteppeStep.c **** *
 721:Generated_Source\PSoC5/SteppeStep.c **** *******************************************************************************/
 722:Generated_Source\PSoC5/SteppeStep.c **** void SteppeStep_SetCaptureCount(uint8 captureCount) 
 723:Generated_Source\PSoC5/SteppeStep.c **** {
 724:Generated_Source\PSoC5/SteppeStep.c ****     SteppeStep_CAP_COUNT = captureCount;
 725:Generated_Source\PSoC5/SteppeStep.c **** }
 726:Generated_Source\PSoC5/SteppeStep.c **** 
 727:Generated_Source\PSoC5/SteppeStep.c **** 
 728:Generated_Source\PSoC5/SteppeStep.c **** /*******************************************************************************
 729:Generated_Source\PSoC5/SteppeStep.c **** * Function Name: SteppeStep_ReadCaptureCount
 730:Generated_Source\PSoC5/SteppeStep.c **** ********************************************************************************
 731:Generated_Source\PSoC5/SteppeStep.c **** *
 732:Generated_Source\PSoC5/SteppeStep.c **** * Summary:
 733:Generated_Source\PSoC5/SteppeStep.c **** *  This function reads the capture count setting
 734:Generated_Source\PSoC5/SteppeStep.c **** *
 735:Generated_Source\PSoC5/SteppeStep.c **** * Parameters:
 736:Generated_Source\PSoC5/SteppeStep.c **** *  void
 737:Generated_Source\PSoC5/SteppeStep.c **** *
 738:Generated_Source\PSoC5/SteppeStep.c **** * Return:
 739:Generated_Source\PSoC5/SteppeStep.c **** *  Returns the Capture Count Setting
 740:Generated_Source\PSoC5/SteppeStep.c **** *
 741:Generated_Source\PSoC5/SteppeStep.c **** *******************************************************************************/
 742:Generated_Source\PSoC5/SteppeStep.c **** uint8 SteppeStep_ReadCaptureCount(void) 
 743:Generated_Source\PSoC5/SteppeStep.c **** {
 744:Generated_Source\PSoC5/SteppeStep.c ****     return ((uint8)SteppeStep_CAP_COUNT);
 745:Generated_Source\PSoC5/SteppeStep.c **** }
 746:Generated_Source\PSoC5/SteppeStep.c **** #endif /* SteppeStep_UsingHWCaptureCounter */
 747:Generated_Source\PSoC5/SteppeStep.c **** 
 748:Generated_Source\PSoC5/SteppeStep.c **** 
 749:Generated_Source\PSoC5/SteppeStep.c **** /*******************************************************************************
 750:Generated_Source\PSoC5/SteppeStep.c **** * Function Name: SteppeStep_ClearFIFO
 751:Generated_Source\PSoC5/SteppeStep.c **** ********************************************************************************
 752:Generated_Source\PSoC5/SteppeStep.c **** *
 753:Generated_Source\PSoC5/SteppeStep.c **** * Summary:
 754:Generated_Source\PSoC5/SteppeStep.c **** *  This function clears all capture data from the capture FIFO
 755:Generated_Source\PSoC5/SteppeStep.c **** *
 756:Generated_Source\PSoC5/SteppeStep.c **** * Parameters:
 757:Generated_Source\PSoC5/SteppeStep.c **** *  void
 758:Generated_Source\PSoC5/SteppeStep.c **** *
 759:Generated_Source\PSoC5/SteppeStep.c **** * Return:
 760:Generated_Source\PSoC5/SteppeStep.c **** *  void
 761:Generated_Source\PSoC5/SteppeStep.c **** *
 762:Generated_Source\PSoC5/SteppeStep.c **** *******************************************************************************/
ARM GAS  C:\Users\GEORGE~1\AppData\Local\Temp\ccOHECfC.s 			page 19


 763:Generated_Source\PSoC5/SteppeStep.c **** void SteppeStep_ClearFIFO(void) 
 764:Generated_Source\PSoC5/SteppeStep.c **** {
 265              		.loc 1 764 0
 266              		.cfi_startproc
 267              		@ args = 0, pretend = 0, frame = 0
 268              		@ frame_needed = 0, uses_anonymous_args = 0
 269 0000 08B5     		push	{r3, lr}
 270              		.cfi_def_cfa_offset 8
 271              		.cfi_offset 3, -8
 272              		.cfi_offset 14, -4
 765:Generated_Source\PSoC5/SteppeStep.c ****     while(0u != (SteppeStep_ReadStatusRegister() & SteppeStep_STATUS_FIFONEMP))
 273              		.loc 1 765 0
 274 0002 01E0     		b	.L28
 275              	.L29:
 766:Generated_Source\PSoC5/SteppeStep.c ****     {
 767:Generated_Source\PSoC5/SteppeStep.c ****         (void)SteppeStep_ReadCapture();
 276              		.loc 1 767 0
 277 0004 FFF7FEFF 		bl	SteppeStep_ReadCapture
 278              	.LVL3:
 279              	.L28:
 765:Generated_Source\PSoC5/SteppeStep.c ****     while(0u != (SteppeStep_ReadStatusRegister() & SteppeStep_STATUS_FIFONEMP))
 280              		.loc 1 765 0
 281 0008 FFF7FEFF 		bl	SteppeStep_ReadStatusRegister
 282              	.LVL4:
 283 000c 10F0080F 		tst	r0, #8
 284 0010 F8D1     		bne	.L29
 768:Generated_Source\PSoC5/SteppeStep.c ****     }
 769:Generated_Source\PSoC5/SteppeStep.c **** }
 285              		.loc 1 769 0
 286 0012 08BD     		pop	{r3, pc}
 287              		.cfi_endproc
 288              	.LFE12:
 289              		.size	SteppeStep_ClearFIFO, .-SteppeStep_ClearFIFO
 290              		.section	.text.SteppeStep_Init,"ax",%progbits
 291              		.align	2
 292              		.global	SteppeStep_Init
 293              		.thumb
 294              		.thumb_func
 295              		.type	SteppeStep_Init, %function
 296              	SteppeStep_Init:
 297              	.LFB0:
  44:Generated_Source\PSoC5/SteppeStep.c ****     #if(!SteppeStep_UsingFixedFunction)
 298              		.loc 1 44 0
 299              		.cfi_startproc
 300              		@ args = 0, pretend = 0, frame = 0
 301              		@ frame_needed = 0, uses_anonymous_args = 0
 302 0000 08B5     		push	{r3, lr}
 303              		.cfi_def_cfa_offset 8
 304              		.cfi_offset 3, -8
 305              		.cfi_offset 14, -4
 118:Generated_Source\PSoC5/SteppeStep.c ****     SteppeStep_WriteCounter(SteppeStep_INIT_PERIOD);
 306              		.loc 1 118 0
 307 0002 4FF0FF30 		mov	r0, #-1
 308 0006 FFF7FEFF 		bl	SteppeStep_WritePeriod
 309              	.LVL5:
 119:Generated_Source\PSoC5/SteppeStep.c **** 
 310              		.loc 1 119 0
ARM GAS  C:\Users\GEORGE~1\AppData\Local\Temp\ccOHECfC.s 			page 20


 311 000a 4FF0FF30 		mov	r0, #-1
 312 000e FFF7FEFF 		bl	SteppeStep_WriteCounter
 313              	.LVL6:
 142:Generated_Source\PSoC5/SteppeStep.c **** 
 314              		.loc 1 142 0
 315 0012 FFF7FEFF 		bl	CyEnterCriticalSection
 316              	.LVL7:
 145:Generated_Source\PSoC5/SteppeStep.c **** 
 317              		.loc 1 145 0
 318 0016 064A     		ldr	r2, .L33
 319 0018 1378     		ldrb	r3, [r2]	@ zero_extendqisi2
 320 001a 43F01003 		orr	r3, r3, #16
 321 001e 1370     		strb	r3, [r2]
 148:Generated_Source\PSoC5/SteppeStep.c **** 
 322              		.loc 1 148 0
 323 0020 FFF7FEFF 		bl	CyExitCriticalSection
 324              	.LVL8:
 159:Generated_Source\PSoC5/SteppeStep.c ****     #endif /* Configure additional features of UDB implementation */
 325              		.loc 1 159 0
 326 0024 FFF7FEFF 		bl	SteppeStep_ClearFIFO
 327              	.LVL9:
 162:Generated_Source\PSoC5/SteppeStep.c **** }
 328              		.loc 1 162 0
 329 0028 0020     		movs	r0, #0
 330 002a FFF7FEFF 		bl	SteppeStep_SetInterruptMode
 331              	.LVL10:
 332 002e 08BD     		pop	{r3, pc}
 333              	.L34:
 334              		.align	2
 335              	.L33:
 336 0030 9B640040 		.word	1073767579
 337              		.cfi_endproc
 338              	.LFE0:
 339              		.size	SteppeStep_Init, .-SteppeStep_Init
 340              		.section	.text.SteppeStep_Start,"ax",%progbits
 341              		.align	2
 342              		.global	SteppeStep_Start
 343              		.thumb
 344              		.thumb_func
 345              		.type	SteppeStep_Start, %function
 346              	SteppeStep_Start:
 347              	.LFB2:
 216:Generated_Source\PSoC5/SteppeStep.c ****     if(SteppeStep_initVar == 0u)
 348              		.loc 1 216 0
 349              		.cfi_startproc
 350              		@ args = 0, pretend = 0, frame = 0
 351              		@ frame_needed = 0, uses_anonymous_args = 0
 352 0000 08B5     		push	{r3, lr}
 353              		.cfi_def_cfa_offset 8
 354              		.cfi_offset 3, -8
 355              		.cfi_offset 14, -4
 217:Generated_Source\PSoC5/SteppeStep.c ****     {
 356              		.loc 1 217 0
 357 0002 044B     		ldr	r3, .L38
 358 0004 1B78     		ldrb	r3, [r3]	@ zero_extendqisi2
 359 0006 23B9     		cbnz	r3, .L35
 219:Generated_Source\PSoC5/SteppeStep.c **** 
ARM GAS  C:\Users\GEORGE~1\AppData\Local\Temp\ccOHECfC.s 			page 21


 360              		.loc 1 219 0
 361 0008 FFF7FEFF 		bl	SteppeStep_Init
 362              	.LVL11:
 221:Generated_Source\PSoC5/SteppeStep.c ****     }
 363              		.loc 1 221 0
 364 000c 0122     		movs	r2, #1
 365 000e 014B     		ldr	r3, .L38
 366 0010 1A70     		strb	r2, [r3]
 367              	.L35:
 368 0012 08BD     		pop	{r3, pc}
 369              	.L39:
 370              		.align	2
 371              	.L38:
 372 0014 00000000 		.word	.LANCHOR0
 373              		.cfi_endproc
 374              	.LFE2:
 375              		.size	SteppeStep_Start, .-SteppeStep_Start
 376              		.global	SteppeStep_initVar
 377              		.bss
 378              		.set	.LANCHOR0,. + 0
 379              		.type	SteppeStep_initVar, %object
 380              		.size	SteppeStep_initVar, 1
 381              	SteppeStep_initVar:
 382 0000 00       		.space	1
 383              		.text
 384              	.Letext0:
 385              		.file 2 "Generated_Source\\PSoC5\\cytypes.h"
 386              		.file 3 "Generated_Source\\PSoC5\\CyLib.h"