ARM GAS  C:\Users\GEORGE~1\AppData\Local\Temp\ccj4Na0a.s 			page 1


   1              		.syntax unified
   2              		.cpu cortex-m3
   3              		.fpu softvfp
   4              		.eabi_attribute 20, 1
   5              		.eabi_attribute 21, 1
   6              		.eabi_attribute 23, 3
   7              		.eabi_attribute 24, 1
   8              		.eabi_attribute 25, 1
   9              		.eabi_attribute 26, 1
  10              		.eabi_attribute 30, 1
  11              		.eabi_attribute 34, 1
  12              		.eabi_attribute 18, 4
  13              		.thumb
  14              		.syntax unified
  15              		.file	"StepperCount_PM.c"
  16              		.text
  17              	.Ltext0:
  18              		.cfi_sections	.debug_frame
  19              		.section	.text.StepperCount_SaveConfig,"ax",%progbits
  20              		.align	2
  21              		.global	StepperCount_SaveConfig
  22              		.thumb
  23              		.thumb_func
  24              		.type	StepperCount_SaveConfig, %function
  25              	StepperCount_SaveConfig:
  26              	.LFB0:
  27              		.file 1 "Generated_Source\\PSoC5\\StepperCount_PM.c"
   1:Generated_Source\PSoC5/StepperCount_PM.c **** /*******************************************************************************
   2:Generated_Source\PSoC5/StepperCount_PM.c **** * File Name: StepperCount_PM.c  
   3:Generated_Source\PSoC5/StepperCount_PM.c **** * Version 3.0
   4:Generated_Source\PSoC5/StepperCount_PM.c **** *
   5:Generated_Source\PSoC5/StepperCount_PM.c **** *  Description:
   6:Generated_Source\PSoC5/StepperCount_PM.c **** *    This file provides the power management source code to API for the
   7:Generated_Source\PSoC5/StepperCount_PM.c **** *    Counter.  
   8:Generated_Source\PSoC5/StepperCount_PM.c **** *
   9:Generated_Source\PSoC5/StepperCount_PM.c **** *   Note:
  10:Generated_Source\PSoC5/StepperCount_PM.c **** *     None
  11:Generated_Source\PSoC5/StepperCount_PM.c **** *
  12:Generated_Source\PSoC5/StepperCount_PM.c **** ********************************************************************************
  13:Generated_Source\PSoC5/StepperCount_PM.c **** * Copyright 2008-2012, Cypress Semiconductor Corporation.  All rights reserved.
  14:Generated_Source\PSoC5/StepperCount_PM.c **** * You may use this file only in accordance with the license, terms, conditions, 
  15:Generated_Source\PSoC5/StepperCount_PM.c **** * disclaimers, and limitations in the end user license agreement accompanying 
  16:Generated_Source\PSoC5/StepperCount_PM.c **** * the software package with which this file was provided.
  17:Generated_Source\PSoC5/StepperCount_PM.c **** *******************************************************************************/
  18:Generated_Source\PSoC5/StepperCount_PM.c **** 
  19:Generated_Source\PSoC5/StepperCount_PM.c **** #include "StepperCount.h"
  20:Generated_Source\PSoC5/StepperCount_PM.c **** 
  21:Generated_Source\PSoC5/StepperCount_PM.c **** static StepperCount_backupStruct StepperCount_backup;
  22:Generated_Source\PSoC5/StepperCount_PM.c **** 
  23:Generated_Source\PSoC5/StepperCount_PM.c **** 
  24:Generated_Source\PSoC5/StepperCount_PM.c **** /*******************************************************************************
  25:Generated_Source\PSoC5/StepperCount_PM.c **** * Function Name: StepperCount_SaveConfig
  26:Generated_Source\PSoC5/StepperCount_PM.c **** ********************************************************************************
  27:Generated_Source\PSoC5/StepperCount_PM.c **** * Summary:
  28:Generated_Source\PSoC5/StepperCount_PM.c **** *     Save the current user configuration
  29:Generated_Source\PSoC5/StepperCount_PM.c **** *
  30:Generated_Source\PSoC5/StepperCount_PM.c **** * Parameters:  
ARM GAS  C:\Users\GEORGE~1\AppData\Local\Temp\ccj4Na0a.s 			page 2


  31:Generated_Source\PSoC5/StepperCount_PM.c **** *  void
  32:Generated_Source\PSoC5/StepperCount_PM.c **** *
  33:Generated_Source\PSoC5/StepperCount_PM.c **** * Return: 
  34:Generated_Source\PSoC5/StepperCount_PM.c **** *  void
  35:Generated_Source\PSoC5/StepperCount_PM.c **** *
  36:Generated_Source\PSoC5/StepperCount_PM.c **** * Global variables:
  37:Generated_Source\PSoC5/StepperCount_PM.c **** *  StepperCount_backup:  Variables of this global structure are modified to 
  38:Generated_Source\PSoC5/StepperCount_PM.c **** *  store the values of non retention configuration registers when Sleep() API is 
  39:Generated_Source\PSoC5/StepperCount_PM.c **** *  called.
  40:Generated_Source\PSoC5/StepperCount_PM.c **** *
  41:Generated_Source\PSoC5/StepperCount_PM.c **** *******************************************************************************/
  42:Generated_Source\PSoC5/StepperCount_PM.c **** void StepperCount_SaveConfig(void) 
  43:Generated_Source\PSoC5/StepperCount_PM.c **** {
  28              		.loc 1 43 0
  29              		.cfi_startproc
  30              		@ args = 0, pretend = 0, frame = 0
  31              		@ frame_needed = 0, uses_anonymous_args = 0
  32 0000 08B5     		push	{r3, lr}
  33              		.cfi_def_cfa_offset 8
  34              		.cfi_offset 3, -8
  35              		.cfi_offset 14, -4
  44:Generated_Source\PSoC5/StepperCount_PM.c ****     #if (!StepperCount_UsingFixedFunction)
  45:Generated_Source\PSoC5/StepperCount_PM.c **** 
  46:Generated_Source\PSoC5/StepperCount_PM.c ****         StepperCount_backup.CounterUdb = StepperCount_ReadCounter();
  36              		.loc 1 46 0
  37 0002 FFF7FEFF 		bl	StepperCount_ReadCounter
  38              	.LVL0:
  39 0006 014B     		ldr	r3, .L3
  40 0008 5860     		str	r0, [r3, #4]
  41 000a 08BD     		pop	{r3, pc}
  42              	.L4:
  43              		.align	2
  44              	.L3:
  45 000c 00000000 		.word	.LANCHOR0
  46              		.cfi_endproc
  47              	.LFE0:
  48              		.size	StepperCount_SaveConfig, .-StepperCount_SaveConfig
  49              		.section	.text.StepperCount_RestoreConfig,"ax",%progbits
  50              		.align	2
  51              		.global	StepperCount_RestoreConfig
  52              		.thumb
  53              		.thumb_func
  54              		.type	StepperCount_RestoreConfig, %function
  55              	StepperCount_RestoreConfig:
  56              	.LFB1:
  47:Generated_Source\PSoC5/StepperCount_PM.c **** 
  48:Generated_Source\PSoC5/StepperCount_PM.c ****         #if(!StepperCount_ControlRegRemoved)
  49:Generated_Source\PSoC5/StepperCount_PM.c ****             StepperCount_backup.CounterControlRegister = StepperCount_ReadControlRegister();
  50:Generated_Source\PSoC5/StepperCount_PM.c ****         #endif /* (!StepperCount_ControlRegRemoved) */
  51:Generated_Source\PSoC5/StepperCount_PM.c **** 
  52:Generated_Source\PSoC5/StepperCount_PM.c ****     #endif /* (!StepperCount_UsingFixedFunction) */
  53:Generated_Source\PSoC5/StepperCount_PM.c **** }
  54:Generated_Source\PSoC5/StepperCount_PM.c **** 
  55:Generated_Source\PSoC5/StepperCount_PM.c **** 
  56:Generated_Source\PSoC5/StepperCount_PM.c **** /*******************************************************************************
  57:Generated_Source\PSoC5/StepperCount_PM.c **** * Function Name: StepperCount_RestoreConfig
  58:Generated_Source\PSoC5/StepperCount_PM.c **** ********************************************************************************
ARM GAS  C:\Users\GEORGE~1\AppData\Local\Temp\ccj4Na0a.s 			page 3


  59:Generated_Source\PSoC5/StepperCount_PM.c **** *
  60:Generated_Source\PSoC5/StepperCount_PM.c **** * Summary:
  61:Generated_Source\PSoC5/StepperCount_PM.c **** *  Restores the current user configuration.
  62:Generated_Source\PSoC5/StepperCount_PM.c **** *
  63:Generated_Source\PSoC5/StepperCount_PM.c **** * Parameters:  
  64:Generated_Source\PSoC5/StepperCount_PM.c **** *  void
  65:Generated_Source\PSoC5/StepperCount_PM.c **** *
  66:Generated_Source\PSoC5/StepperCount_PM.c **** * Return: 
  67:Generated_Source\PSoC5/StepperCount_PM.c **** *  void
  68:Generated_Source\PSoC5/StepperCount_PM.c **** *
  69:Generated_Source\PSoC5/StepperCount_PM.c **** * Global variables:
  70:Generated_Source\PSoC5/StepperCount_PM.c **** *  StepperCount_backup:  Variables of this global structure are used to 
  71:Generated_Source\PSoC5/StepperCount_PM.c **** *  restore the values of non retention registers on wakeup from sleep mode.
  72:Generated_Source\PSoC5/StepperCount_PM.c **** *
  73:Generated_Source\PSoC5/StepperCount_PM.c **** *******************************************************************************/
  74:Generated_Source\PSoC5/StepperCount_PM.c **** void StepperCount_RestoreConfig(void) 
  75:Generated_Source\PSoC5/StepperCount_PM.c **** {      
  57              		.loc 1 75 0
  58              		.cfi_startproc
  59              		@ args = 0, pretend = 0, frame = 0
  60              		@ frame_needed = 0, uses_anonymous_args = 0
  61 0000 08B5     		push	{r3, lr}
  62              		.cfi_def_cfa_offset 8
  63              		.cfi_offset 3, -8
  64              		.cfi_offset 14, -4
  76:Generated_Source\PSoC5/StepperCount_PM.c ****     #if (!StepperCount_UsingFixedFunction)
  77:Generated_Source\PSoC5/StepperCount_PM.c **** 
  78:Generated_Source\PSoC5/StepperCount_PM.c ****        StepperCount_WriteCounter(StepperCount_backup.CounterUdb);
  65              		.loc 1 78 0
  66 0002 024B     		ldr	r3, .L7
  67 0004 5868     		ldr	r0, [r3, #4]
  68 0006 FFF7FEFF 		bl	StepperCount_WriteCounter
  69              	.LVL1:
  70 000a 08BD     		pop	{r3, pc}
  71              	.L8:
  72              		.align	2
  73              	.L7:
  74 000c 00000000 		.word	.LANCHOR0
  75              		.cfi_endproc
  76              	.LFE1:
  77              		.size	StepperCount_RestoreConfig, .-StepperCount_RestoreConfig
  78              		.section	.text.StepperCount_Sleep,"ax",%progbits
  79              		.align	2
  80              		.global	StepperCount_Sleep
  81              		.thumb
  82              		.thumb_func
  83              		.type	StepperCount_Sleep, %function
  84              	StepperCount_Sleep:
  85              	.LFB2:
  79:Generated_Source\PSoC5/StepperCount_PM.c **** 
  80:Generated_Source\PSoC5/StepperCount_PM.c ****         #if(!StepperCount_ControlRegRemoved)
  81:Generated_Source\PSoC5/StepperCount_PM.c ****             StepperCount_WriteControlRegister(StepperCount_backup.CounterControlRegister);
  82:Generated_Source\PSoC5/StepperCount_PM.c ****         #endif /* (!StepperCount_ControlRegRemoved) */
  83:Generated_Source\PSoC5/StepperCount_PM.c **** 
  84:Generated_Source\PSoC5/StepperCount_PM.c ****     #endif /* (!StepperCount_UsingFixedFunction) */
  85:Generated_Source\PSoC5/StepperCount_PM.c **** }
  86:Generated_Source\PSoC5/StepperCount_PM.c **** 
ARM GAS  C:\Users\GEORGE~1\AppData\Local\Temp\ccj4Na0a.s 			page 4


  87:Generated_Source\PSoC5/StepperCount_PM.c **** 
  88:Generated_Source\PSoC5/StepperCount_PM.c **** /*******************************************************************************
  89:Generated_Source\PSoC5/StepperCount_PM.c **** * Function Name: StepperCount_Sleep
  90:Generated_Source\PSoC5/StepperCount_PM.c **** ********************************************************************************
  91:Generated_Source\PSoC5/StepperCount_PM.c **** * Summary:
  92:Generated_Source\PSoC5/StepperCount_PM.c **** *     Stop and Save the user configuration
  93:Generated_Source\PSoC5/StepperCount_PM.c **** *
  94:Generated_Source\PSoC5/StepperCount_PM.c **** * Parameters:  
  95:Generated_Source\PSoC5/StepperCount_PM.c **** *  void
  96:Generated_Source\PSoC5/StepperCount_PM.c **** *
  97:Generated_Source\PSoC5/StepperCount_PM.c **** * Return: 
  98:Generated_Source\PSoC5/StepperCount_PM.c **** *  void
  99:Generated_Source\PSoC5/StepperCount_PM.c **** *
 100:Generated_Source\PSoC5/StepperCount_PM.c **** * Global variables:
 101:Generated_Source\PSoC5/StepperCount_PM.c **** *  StepperCount_backup.enableState:  Is modified depending on the enable 
 102:Generated_Source\PSoC5/StepperCount_PM.c **** *  state of the block before entering sleep mode.
 103:Generated_Source\PSoC5/StepperCount_PM.c **** *
 104:Generated_Source\PSoC5/StepperCount_PM.c **** *******************************************************************************/
 105:Generated_Source\PSoC5/StepperCount_PM.c **** void StepperCount_Sleep(void) 
 106:Generated_Source\PSoC5/StepperCount_PM.c **** {
  86              		.loc 1 106 0
  87              		.cfi_startproc
  88              		@ args = 0, pretend = 0, frame = 0
  89              		@ frame_needed = 0, uses_anonymous_args = 0
  90 0000 08B5     		push	{r3, lr}
  91              		.cfi_def_cfa_offset 8
  92              		.cfi_offset 3, -8
  93              		.cfi_offset 14, -4
 107:Generated_Source\PSoC5/StepperCount_PM.c ****     #if(!StepperCount_ControlRegRemoved)
 108:Generated_Source\PSoC5/StepperCount_PM.c ****         /* Save Counter's enable state */
 109:Generated_Source\PSoC5/StepperCount_PM.c ****         if(StepperCount_CTRL_ENABLE == (StepperCount_CONTROL & StepperCount_CTRL_ENABLE))
 110:Generated_Source\PSoC5/StepperCount_PM.c ****         {
 111:Generated_Source\PSoC5/StepperCount_PM.c ****             /* Counter is enabled */
 112:Generated_Source\PSoC5/StepperCount_PM.c ****             StepperCount_backup.CounterEnableState = 1u;
 113:Generated_Source\PSoC5/StepperCount_PM.c ****         }
 114:Generated_Source\PSoC5/StepperCount_PM.c ****         else
 115:Generated_Source\PSoC5/StepperCount_PM.c ****         {
 116:Generated_Source\PSoC5/StepperCount_PM.c ****             /* Counter is disabled */
 117:Generated_Source\PSoC5/StepperCount_PM.c ****             StepperCount_backup.CounterEnableState = 0u;
 118:Generated_Source\PSoC5/StepperCount_PM.c ****         }
 119:Generated_Source\PSoC5/StepperCount_PM.c ****     #else
 120:Generated_Source\PSoC5/StepperCount_PM.c ****         StepperCount_backup.CounterEnableState = 1u;
 121:Generated_Source\PSoC5/StepperCount_PM.c ****         if(StepperCount_backup.CounterEnableState != 0u)
 122:Generated_Source\PSoC5/StepperCount_PM.c ****         {
 123:Generated_Source\PSoC5/StepperCount_PM.c ****             StepperCount_backup.CounterEnableState = 0u;
  94              		.loc 1 123 0
  95 0002 0022     		movs	r2, #0
  96 0004 034B     		ldr	r3, .L11
  97 0006 1A70     		strb	r2, [r3]
 124:Generated_Source\PSoC5/StepperCount_PM.c ****         }
 125:Generated_Source\PSoC5/StepperCount_PM.c ****     #endif /* (!StepperCount_ControlRegRemoved) */
 126:Generated_Source\PSoC5/StepperCount_PM.c ****     
 127:Generated_Source\PSoC5/StepperCount_PM.c ****     StepperCount_Stop();
  98              		.loc 1 127 0
  99 0008 FFF7FEFF 		bl	StepperCount_Stop
 100              	.LVL2:
 128:Generated_Source\PSoC5/StepperCount_PM.c ****     StepperCount_SaveConfig();
ARM GAS  C:\Users\GEORGE~1\AppData\Local\Temp\ccj4Na0a.s 			page 5


 101              		.loc 1 128 0
 102 000c FFF7FEFF 		bl	StepperCount_SaveConfig
 103              	.LVL3:
 104 0010 08BD     		pop	{r3, pc}
 105              	.L12:
 106 0012 00BF     		.align	2
 107              	.L11:
 108 0014 00000000 		.word	.LANCHOR0
 109              		.cfi_endproc
 110              	.LFE2:
 111              		.size	StepperCount_Sleep, .-StepperCount_Sleep
 112              		.section	.text.StepperCount_Wakeup,"ax",%progbits
 113              		.align	2
 114              		.global	StepperCount_Wakeup
 115              		.thumb
 116              		.thumb_func
 117              		.type	StepperCount_Wakeup, %function
 118              	StepperCount_Wakeup:
 119              	.LFB3:
 129:Generated_Source\PSoC5/StepperCount_PM.c **** }
 130:Generated_Source\PSoC5/StepperCount_PM.c **** 
 131:Generated_Source\PSoC5/StepperCount_PM.c **** 
 132:Generated_Source\PSoC5/StepperCount_PM.c **** /*******************************************************************************
 133:Generated_Source\PSoC5/StepperCount_PM.c **** * Function Name: StepperCount_Wakeup
 134:Generated_Source\PSoC5/StepperCount_PM.c **** ********************************************************************************
 135:Generated_Source\PSoC5/StepperCount_PM.c **** *
 136:Generated_Source\PSoC5/StepperCount_PM.c **** * Summary:
 137:Generated_Source\PSoC5/StepperCount_PM.c **** *  Restores and enables the user configuration
 138:Generated_Source\PSoC5/StepperCount_PM.c **** *  
 139:Generated_Source\PSoC5/StepperCount_PM.c **** * Parameters:  
 140:Generated_Source\PSoC5/StepperCount_PM.c **** *  void
 141:Generated_Source\PSoC5/StepperCount_PM.c **** *
 142:Generated_Source\PSoC5/StepperCount_PM.c **** * Return: 
 143:Generated_Source\PSoC5/StepperCount_PM.c **** *  void
 144:Generated_Source\PSoC5/StepperCount_PM.c **** *
 145:Generated_Source\PSoC5/StepperCount_PM.c **** * Global variables:
 146:Generated_Source\PSoC5/StepperCount_PM.c **** *  StepperCount_backup.enableState:  Is used to restore the enable state of 
 147:Generated_Source\PSoC5/StepperCount_PM.c **** *  block on wakeup from sleep mode.
 148:Generated_Source\PSoC5/StepperCount_PM.c **** *
 149:Generated_Source\PSoC5/StepperCount_PM.c **** *******************************************************************************/
 150:Generated_Source\PSoC5/StepperCount_PM.c **** void StepperCount_Wakeup(void) 
 151:Generated_Source\PSoC5/StepperCount_PM.c **** {
 120              		.loc 1 151 0
 121              		.cfi_startproc
 122              		@ args = 0, pretend = 0, frame = 0
 123              		@ frame_needed = 0, uses_anonymous_args = 0
 124 0000 08B5     		push	{r3, lr}
 125              		.cfi_def_cfa_offset 8
 126              		.cfi_offset 3, -8
 127              		.cfi_offset 14, -4
 152:Generated_Source\PSoC5/StepperCount_PM.c ****     StepperCount_RestoreConfig();
 128              		.loc 1 152 0
 129 0002 FFF7FEFF 		bl	StepperCount_RestoreConfig
 130              	.LVL4:
 131 0006 08BD     		pop	{r3, pc}
 132              		.cfi_endproc
 133              	.LFE3:
ARM GAS  C:\Users\GEORGE~1\AppData\Local\Temp\ccj4Na0a.s 			page 6


 134              		.size	StepperCount_Wakeup, .-StepperCount_Wakeup
 135              		.bss
 136              		.align	2
 137              		.set	.LANCHOR0,. + 0
 138              		.type	StepperCount_backup, %object
 139              		.size	StepperCount_backup, 8
 140              	StepperCount_backup:
 141 0000 00000000 		.space	8
 141      00000000 
 142              		.text
 143              	.Letext0:
 144              		.file 2 "Generated_Source\\PSoC5\\cytypes.h"
 145              		.file 3 "Generated_Source\\PSoC5\\StepperCount.h"