ARM GAS  C:\Users\shawn\AppData\Local\Temp\cczSgDho.s 			page 1


   1              		.syntax unified
   2              		.cpu cortex-m3
   3              		.fpu softvfp
   4              		.eabi_attribute 20, 1
   5              		.eabi_attribute 21, 1
   6              		.eabi_attribute 23, 3
   7              		.eabi_attribute 24, 1
   8              		.eabi_attribute 25, 1
   9              		.eabi_attribute 26, 1
  10              		.eabi_attribute 30, 1
  11              		.eabi_attribute 34, 1
  12              		.eabi_attribute 18, 4
  13              		.thumb
  14              		.syntax unified
  15              		.file	"main.c"
  16              		.text
  17              	.Ltext0:
  18              		.cfi_sections	.debug_frame
  19              		.section	.text.ByteReceived,"ax",%progbits
  20              		.align	2
  21              		.global	ByteReceived
  22              		.thumb
  23              		.thumb_func
  24              		.type	ByteReceived, %function
  25              	ByteReceived:
  26              	.LFB63:
  27              		.file 1 "main.c"
   1:main.c        **** /* ========================================
   2:main.c        ****  *
   3:main.c        ****  * Copyright YOUR COMPANY, THE YEAR
   4:main.c        ****  * All Rights Reserved
   5:main.c        ****  * UNPUBLISHED, LICENSED SOFTWARE.
   6:main.c        ****  *
   7:main.c        ****  * CONFIDENTIAL AND PROPRIETARY INFORMATION
   8:main.c        ****  * WHICH IS THE PROPERTY OF your company.
   9:main.c        ****  *
  10:main.c        ****  * ========================================
  11:main.c        **** */
  12:main.c        **** #include "project.h"
  13:main.c        **** 
  14:main.c        **** uint8 ByteCount = 0;
  15:main.c        **** uint8 firstbyte = 0;
  16:main.c        **** uint8 CommandReady = 0;
  17:main.c        **** uint8 Count = 0;
  18:main.c        **** uint8 Status;
  19:main.c        **** 
  20:main.c        **** uint8 ReceivedBuffer[66];
  21:main.c        **** uint8 TransmitBuffer[66];
  22:main.c        **** 
  23:main.c        **** struct command_protocol
  24:main.c        **** {
  25:main.c        ****     uint8 packet_size;
  26:main.c        ****     uint8 command;
  27:main.c        ****     uint8 buffer[64];
  28:main.c        **** } Command_Packet;
  29:main.c        **** 
  30:main.c        **** struct command_protocol Transmit_Packet;
ARM GAS  C:\Users\shawn\AppData\Local\Temp\cczSgDho.s 			page 2


  31:main.c        **** 
  32:main.c        **** CY_ISR(ByteReceived)
  33:main.c        **** { 
  28              		.loc 1 33 0
  29              		.cfi_startproc
  30              		@ args = 0, pretend = 0, frame = 0
  31              		@ frame_needed = 0, uses_anonymous_args = 0
  32 0000 38B5     		push	{r3, r4, r5, lr}
  33              		.cfi_def_cfa_offset 16
  34              		.cfi_offset 3, -16
  35              		.cfi_offset 4, -12
  36              		.cfi_offset 5, -8
  37              		.cfi_offset 14, -4
  34:main.c        ****     LEDDrive_Write(1);
  38              		.loc 1 34 0
  39 0002 0120     		movs	r0, #1
  40 0004 FFF7FEFF 		bl	LEDDrive_Write
  41              	.LVL0:
  35:main.c        ****     ReceivedBuffer[ByteCount++] = (uint8) (LabVIEW_UART_GetByte()&0x00ff);
  42              		.loc 1 35 0
  43 0008 0D4C     		ldr	r4, .L4
  44 000a 2578     		ldrb	r5, [r4]	@ zero_extendqisi2
  45 000c 6B1C     		adds	r3, r5, #1
  46 000e 2370     		strb	r3, [r4]
  47 0010 FFF7FEFF 		bl	LabVIEW_UART_GetByte
  48              	.LVL1:
  49 0014 0B4B     		ldr	r3, .L4+4
  50 0016 5855     		strb	r0, [r3, r5]
  36:main.c        ****     if(firstbyte == 0)
  51              		.loc 1 36 0
  52 0018 6378     		ldrb	r3, [r4, #1]	@ zero_extendqisi2
  53 001a 2BB9     		cbnz	r3, .L2
  37:main.c        ****     {
  38:main.c        ****         ByteCounter_WriteCompare(ReceivedBuffer[0]);
  54              		.loc 1 38 0
  55 001c 094B     		ldr	r3, .L4+4
  56 001e 1878     		ldrb	r0, [r3]	@ zero_extendqisi2
  57 0020 FFF7FEFF 		bl	ByteCounter_WriteCompare
  58              	.LVL2:
  39:main.c        ****         firstbyte = 1;
  59              		.loc 1 39 0
  60 0024 0122     		movs	r2, #1
  61 0026 6270     		strb	r2, [r4, #1]
  62              	.L2:
  40:main.c        ****    
  41:main.c        ****     }
  42:main.c        ****     Count = ByteCounter_ReadCounter();
  63              		.loc 1 42 0
  64 0028 FFF7FEFF 		bl	ByteCounter_ReadCounter
  65              	.LVL3:
  66 002c 044B     		ldr	r3, .L4
  67 002e 9870     		strb	r0, [r3, #2]
  43:main.c        ****     Status = ByteCounter_ReadStatusRegister();
  68              		.loc 1 43 0
  69 0030 FFF7FEFF 		bl	ByteCounter_ReadStatusRegister
  70              	.LVL4:
  71 0034 044B     		ldr	r3, .L4+8
ARM GAS  C:\Users\shawn\AppData\Local\Temp\cczSgDho.s 			page 3


  72 0036 1870     		strb	r0, [r3]
  44:main.c        ****     LEDDrive_Write(0);
  73              		.loc 1 44 0
  74 0038 0020     		movs	r0, #0
  75 003a FFF7FEFF 		bl	LEDDrive_Write
  76              	.LVL5:
  77 003e 38BD     		pop	{r3, r4, r5, pc}
  78              	.L5:
  79              		.align	2
  80              	.L4:
  81 0040 00000000 		.word	.LANCHOR0
  82 0044 00000000 		.word	ReceivedBuffer
  83 0048 00000000 		.word	Status
  84              		.cfi_endproc
  85              	.LFE63:
  86              		.size	ByteReceived, .-ByteReceived
  87              		.section	.text.CommandReceived,"ax",%progbits
  88              		.align	2
  89              		.global	CommandReceived
  90              		.thumb
  91              		.thumb_func
  92              		.type	CommandReceived, %function
  93              	CommandReceived:
  94              	.LFB64:
  45:main.c        ****     
  46:main.c        **** }
  47:main.c        **** 
  48:main.c        **** CY_ISR(CommandReceived)
  49:main.c        **** {
  95              		.loc 1 49 0
  96              		.cfi_startproc
  97              		@ args = 0, pretend = 0, frame = 0
  98              		@ frame_needed = 0, uses_anonymous_args = 0
  99 0000 08B5     		push	{r3, lr}
 100              		.cfi_def_cfa_offset 8
 101              		.cfi_offset 3, -8
 102              		.cfi_offset 14, -4
  50:main.c        ****     uint8 i;
  51:main.c        ****     
  52:main.c        ****     if(CommandReady == 0)
 103              		.loc 1 52 0
 104 0002 114B     		ldr	r3, .L11
 105 0004 DB78     		ldrb	r3, [r3, #3]	@ zero_extendqisi2
 106 0006 C3B9     		cbnz	r3, .L7
  53:main.c        ****     {
  54:main.c        ****         Command_Packet.packet_size = ReceivedBuffer[0];
 107              		.loc 1 54 0
 108 0008 104A     		ldr	r2, .L11+4
 109 000a 1078     		ldrb	r0, [r2]	@ zero_extendqisi2
 110 000c 104B     		ldr	r3, .L11+8
 111 000e 1870     		strb	r0, [r3]
  55:main.c        ****         Command_Packet.command = ReceivedBuffer[1];
 112              		.loc 1 55 0
 113 0010 5278     		ldrb	r2, [r2, #1]	@ zero_extendqisi2
 114 0012 5A70     		strb	r2, [r3, #1]
 115              	.LVL6:
  56:main.c        ****     
ARM GAS  C:\Users\shawn\AppData\Local\Temp\cczSgDho.s 			page 4


  57:main.c        ****         for(i=0;i<(Command_Packet.packet_size - 2);i++)
 116              		.loc 1 57 0
 117 0014 0023     		movs	r3, #0
 118 0016 07E0     		b	.L8
 119              	.LVL7:
 120              	.L9:
  58:main.c        ****         {
  59:main.c        ****             Command_Packet.buffer[i] =  ReceivedBuffer[i+2];
 121              		.loc 1 59 0 discriminator 3
 122 0018 9A1C     		adds	r2, r3, #2
 123 001a 0C49     		ldr	r1, .L11+4
 124 001c 895C     		ldrb	r1, [r1, r2]	@ zero_extendqisi2
 125 001e 0C4A     		ldr	r2, .L11+8
 126 0020 1A44     		add	r2, r2, r3
 127 0022 9170     		strb	r1, [r2, #2]
  57:main.c        ****         {
 128              		.loc 1 57 0 discriminator 3
 129 0024 0133     		adds	r3, r3, #1
 130              	.LVL8:
 131 0026 DBB2     		uxtb	r3, r3
 132              	.LVL9:
 133              	.L8:
  57:main.c        ****         {
 134              		.loc 1 57 0 is_stmt 0 discriminator 1
 135 0028 821E     		subs	r2, r0, #2
 136 002a 9342     		cmp	r3, r2
 137 002c F4DB     		blt	.L9
  60:main.c        ****         }
  61:main.c        ****     
  62:main.c        ****         firstbyte = 0;
 138              		.loc 1 62 0 is_stmt 1
 139 002e 064B     		ldr	r3, .L11
 140              	.LVL10:
 141 0030 0022     		movs	r2, #0
 142 0032 5A70     		strb	r2, [r3, #1]
  63:main.c        ****         CommandReady = 1;
 143              		.loc 1 63 0
 144 0034 0121     		movs	r1, #1
 145 0036 D970     		strb	r1, [r3, #3]
  64:main.c        ****         ByteCount = 0;
 146              		.loc 1 64 0
 147 0038 1A70     		strb	r2, [r3]
 148              	.L7:
  65:main.c        ****     }
  66:main.c        ****     ByteCounter_ReadStatusRegister();
 149              		.loc 1 66 0
 150 003a FFF7FEFF 		bl	ByteCounter_ReadStatusRegister
 151              	.LVL11:
  67:main.c        ****     LEDDrive_Write(0);
 152              		.loc 1 67 0
 153 003e 0020     		movs	r0, #0
 154 0040 FFF7FEFF 		bl	LEDDrive_Write
 155              	.LVL12:
 156 0044 08BD     		pop	{r3, pc}
 157              	.L12:
 158 0046 00BF     		.align	2
 159              	.L11:
ARM GAS  C:\Users\shawn\AppData\Local\Temp\cczSgDho.s 			page 5


 160 0048 00000000 		.word	.LANCHOR0
 161 004c 00000000 		.word	ReceivedBuffer
 162 0050 00000000 		.word	Command_Packet
 163              		.cfi_endproc
 164              	.LFE64:
 165              		.size	CommandReceived, .-CommandReceived
 166              		.section	.text.main,"ax",%progbits
 167              		.align	2
 168              		.global	main
 169              		.thumb
 170              		.thumb_func
 171              		.type	main, %function
 172              	main:
 173              	.LFB65:
  68:main.c        **** }
  69:main.c        **** 
  70:main.c        **** int main(void)
  71:main.c        **** {
 174              		.loc 1 71 0
 175              		.cfi_startproc
 176              		@ args = 0, pretend = 0, frame = 0
 177              		@ frame_needed = 0, uses_anonymous_args = 0
 178 0000 10B5     		push	{r4, lr}
 179              		.cfi_def_cfa_offset 8
 180              		.cfi_offset 4, -8
 181              		.cfi_offset 14, -4
  72:main.c        ****     uint8 i;
  73:main.c        ****     
  74:main.c        ****     UARTReset_Write(0);
 182              		.loc 1 74 0
 183 0002 0020     		movs	r0, #0
 184 0004 FFF7FEFF 		bl	UARTReset_Write
 185              	.LVL13:
  75:main.c        ****     ByteCountReset_Write(0);
 186              		.loc 1 75 0
 187 0008 0020     		movs	r0, #0
 188 000a FFF7FEFF 		bl	ByteCountReset_Write
 189              	.LVL14:
  76:main.c        ****     
  77:main.c        ****     LabVIEW_UART_Start();
 190              		.loc 1 77 0
 191 000e FFF7FEFF 		bl	LabVIEW_UART_Start
 192              	.LVL15:
  78:main.c        ****     
  79:main.c        ****     
  80:main.c        ****     ByteCounter_Start();
 193              		.loc 1 80 0
 194 0012 FFF7FEFF 		bl	ByteCounter_Start
 195              	.LVL16:
  81:main.c        ****     ByteCounter_Enable();
 196              		.loc 1 81 0
 197 0016 FFF7FEFF 		bl	ByteCounter_Enable
 198              	.LVL17:
  82:main.c        ****     ByteCounter_SetInterruptMode(ByteCounter_STATUS_CMP_INT_EN_MASK);
 199              		.loc 1 82 0
 200 001a 0120     		movs	r0, #1
 201 001c FFF7FEFF 		bl	ByteCounter_SetInterruptMode
ARM GAS  C:\Users\shawn\AppData\Local\Temp\cczSgDho.s 			page 6


 202              	.LVL18:
  83:main.c        ****        
  84:main.c        ****     ByteReceived_Start();
 203              		.loc 1 84 0
 204 0020 FFF7FEFF 		bl	ByteReceived_Start
 205              	.LVL19:
  85:main.c        ****     ByteReceived_StartEx(ByteReceived);
 206              		.loc 1 85 0
 207 0024 1A48     		ldr	r0, .L21
 208 0026 FFF7FEFF 		bl	ByteReceived_StartEx
 209              	.LVL20:
  86:main.c        ****     ByteReceived_Enable();
 210              		.loc 1 86 0
 211 002a FFF7FEFF 		bl	ByteReceived_Enable
 212              	.LVL21:
  87:main.c        ****     
  88:main.c        ****     CommandReceived_Start();
 213              		.loc 1 88 0
 214 002e FFF7FEFF 		bl	CommandReceived_Start
 215              	.LVL22:
  89:main.c        ****     CommandReceived_StartEx(CommandReceived);
 216              		.loc 1 89 0
 217 0032 1848     		ldr	r0, .L21+4
 218 0034 FFF7FEFF 		bl	CommandReceived_StartEx
 219              	.LVL23:
  90:main.c        ****     CommandReceived_Enable();
 220              		.loc 1 90 0
 221 0038 FFF7FEFF 		bl	CommandReceived_Enable
 222              	.LVL24:
  91:main.c        ****     
  92:main.c        ****    
  93:main.c        ****     
  94:main.c        ****     CyGlobalIntEnable; /* Enable global interrupts. */
 223              		.loc 1 94 0
 224              		.syntax unified
 225              	@ 94 "main.c" 1
 226 003c 62B6     		CPSIE   i
 227              	@ 0 "" 2
 228              		.thumb
 229              		.syntax unified
 230              	.L14:
  95:main.c        **** 
  96:main.c        ****     /* Place your initialization/startup code here (e.g. MyInst_Start()) */
  97:main.c        **** 
  98:main.c        ****     //LabVIEW_UART_PutString("PSOC Started\r\n");
  99:main.c        ****     
 100:main.c        ****     for(;;)
 101:main.c        ****     {
 102:main.c        ****         /* Place your application code here. */
 103:main.c        ****         
 104:main.c        ****         if(CommandReady)
 231              		.loc 1 104 0
 232 003e 164B     		ldr	r3, .L21+8
 233 0040 DB78     		ldrb	r3, [r3, #3]	@ zero_extendqisi2
 234 0042 002B     		cmp	r3, #0
 235 0044 FBD0     		beq	.L14
 105:main.c        ****         {
ARM GAS  C:\Users\shawn\AppData\Local\Temp\cczSgDho.s 			page 7


 106:main.c        ****             switch(Command_Packet.command)
 236              		.loc 1 106 0
 237 0046 154B     		ldr	r3, .L21+12
 238 0048 5B78     		ldrb	r3, [r3, #1]	@ zero_extendqisi2
 239 004a 052B     		cmp	r3, #5
 240 004c 19D1     		bne	.L15
 107:main.c        ****             {
 108:main.c        ****                 case 5:
 109:main.c        ****                     Transmit_Packet.command = Command_Packet.command;
 241              		.loc 1 109 0
 242 004e 1449     		ldr	r1, .L21+16
 243 0050 4B70     		strb	r3, [r1, #1]
 110:main.c        ****                     TransmitBuffer[1] = Transmit_Packet.command;
 244              		.loc 1 110 0
 245 0052 144A     		ldr	r2, .L21+20
 246 0054 5370     		strb	r3, [r2, #1]
 111:main.c        ****                     Transmit_Packet.packet_size = Command_Packet.packet_size;
 247              		.loc 1 111 0
 248 0056 114B     		ldr	r3, .L21+12
 249 0058 1C78     		ldrb	r4, [r3]	@ zero_extendqisi2
 250 005a 0C70     		strb	r4, [r1]
 112:main.c        ****                     TransmitBuffer[0] = Transmit_Packet.packet_size;
 251              		.loc 1 112 0
 252 005c 1470     		strb	r4, [r2]
 253              	.LVL25:
 113:main.c        ****                     for(i=0;i<Transmit_Packet.packet_size;i++)
 254              		.loc 1 113 0
 255 005e 0023     		movs	r3, #0
 256 0060 0AE0     		b	.L17
 257              	.LVL26:
 258              	.L18:
 114:main.c        ****                     {
 115:main.c        ****                             Transmit_Packet.buffer[i+2] = Command_Packet.buffer[i];
 259              		.loc 1 115 0 discriminator 3
 260 0062 991C     		adds	r1, r3, #2
 261 0064 0D4A     		ldr	r2, .L21+12
 262 0066 1A44     		add	r2, r2, r3
 263 0068 9078     		ldrb	r0, [r2, #2]	@ zero_extendqisi2
 264 006a 0D4A     		ldr	r2, .L21+16
 265 006c 0A44     		add	r2, r2, r1
 266 006e 9070     		strb	r0, [r2, #2]
 116:main.c        ****                             TransmitBuffer[i+2] = Transmit_Packet.buffer[i+2];
 267              		.loc 1 116 0 discriminator 3
 268 0070 0C4A     		ldr	r2, .L21+20
 269 0072 5054     		strb	r0, [r2, r1]
 113:main.c        ****                     for(i=0;i<Transmit_Packet.packet_size;i++)
 270              		.loc 1 113 0 discriminator 3
 271 0074 0133     		adds	r3, r3, #1
 272              	.LVL27:
 273 0076 DBB2     		uxtb	r3, r3
 274              	.LVL28:
 275              	.L17:
 113:main.c        ****                     for(i=0;i<Transmit_Packet.packet_size;i++)
 276              		.loc 1 113 0 is_stmt 0 discriminator 1
 277 0078 A342     		cmp	r3, r4
 278 007a F2D3     		bcc	.L18
 117:main.c        ****                     }
ARM GAS  C:\Users\shawn\AppData\Local\Temp\cczSgDho.s 			page 8


 118:main.c        ****                     CommandReady = 0;
 279              		.loc 1 118 0 is_stmt 1
 280 007c 0022     		movs	r2, #0
 281 007e 064B     		ldr	r3, .L21+8
 282              	.LVL29:
 283 0080 DA70     		strb	r2, [r3, #3]
 284              	.L15:
 119:main.c        ****                 break;
 120:main.c        ****                 default:
 121:main.c        ****                 break;
 122:main.c        ****             }
 123:main.c        ****             LabVIEW_UART_PutArray(TransmitBuffer,Transmit_Packet.packet_size);
 285              		.loc 1 123 0
 286 0082 074B     		ldr	r3, .L21+16
 287 0084 1978     		ldrb	r1, [r3]	@ zero_extendqisi2
 288 0086 0748     		ldr	r0, .L21+20
 289 0088 FFF7FEFF 		bl	LabVIEW_UART_PutArray
 290              	.LVL30:
 291 008c D7E7     		b	.L14
 292              	.L22:
 293 008e 00BF     		.align	2
 294              	.L21:
 295 0090 00000000 		.word	ByteReceived
 296 0094 00000000 		.word	CommandReceived
 297 0098 00000000 		.word	.LANCHOR0
 298 009c 00000000 		.word	Command_Packet
 299 00a0 00000000 		.word	Transmit_Packet
 300 00a4 00000000 		.word	TransmitBuffer
 301              		.cfi_endproc
 302              	.LFE65:
 303              		.size	main, .-main
 304              		.comm	Transmit_Packet,66,4
 305              		.comm	Command_Packet,66,4
 306              		.comm	TransmitBuffer,66,4
 307              		.comm	ReceivedBuffer,66,4
 308              		.comm	Status,1,1
 309              		.global	Count
 310              		.global	CommandReady
 311              		.global	firstbyte
 312              		.global	ByteCount
 313              		.bss
 314              		.set	.LANCHOR0,. + 0
 315              		.type	ByteCount, %object
 316              		.size	ByteCount, 1
 317              	ByteCount:
 318 0000 00       		.space	1
 319              		.type	firstbyte, %object
 320              		.size	firstbyte, 1
 321              	firstbyte:
 322 0001 00       		.space	1
 323              		.type	Count, %object
 324              		.size	Count, 1
 325              	Count:
 326 0002 00       		.space	1
 327              		.type	CommandReady, %object
 328              		.size	CommandReady, 1
 329              	CommandReady:
ARM GAS  C:\Users\shawn\AppData\Local\Temp\cczSgDho.s 			page 9


 330 0003 00       		.space	1
 331              		.text
 332              	.Letext0:
 333              		.file 2 "c:\\program files (x86)\\cypress\\psoc creator\\4.2\\psoc creator\\import\\gnu\\arm\\5.4.
 334              		.file 3 "c:\\program files (x86)\\cypress\\psoc creator\\4.2\\psoc creator\\import\\gnu\\arm\\5.4.
 335              		.file 4 "Generated_Source\\PSoC5/cytypes.h"
 336              		.file 5 "Generated_Source\\PSoC5/core_cm3.h"
 337              		.file 6 "Generated_Source\\PSoC5/LEDDrive.h"
 338              		.file 7 "Generated_Source\\PSoC5/LabVIEW_UART.h"
 339              		.file 8 "Generated_Source\\PSoC5/ByteCounter.h"
 340              		.file 9 "Generated_Source\\PSoC5/UARTReset.h"
 341              		.file 10 "Generated_Source\\PSoC5/ByteCountReset.h"
 342              		.file 11 "Generated_Source\\PSoC5/ByteReceived.h"
 343              		.file 12 "Generated_Source\\PSoC5/CommandReceived.h"