ARM GAS  C:\Users\GEORGE~1\AppData\Local\Temp\ccqapVKD.s 			page 1


   1              		.syntax unified
   2              		.cpu cortex-m3
   3              		.fpu softvfp
   4              		.eabi_attribute 20, 1
   5              		.eabi_attribute 21, 1
   6              		.eabi_attribute 23, 3
   7              		.eabi_attribute 24, 1
   8              		.eabi_attribute 25, 1
   9              		.eabi_attribute 26, 1
  10              		.eabi_attribute 30, 1
  11              		.eabi_attribute 34, 1
  12              		.eabi_attribute 18, 4
  13              		.thumb
  14              		.syntax unified
  15              		.file	"main.c"
  16              		.text
  17              	.Ltext0:
  18              		.cfi_sections	.debug_frame
  19              		.section	.text.EEPROM_Write_Page,"ax",%progbits
  20              		.align	2
  21              		.global	EEPROM_Write_Page
  22              		.thumb
  23              		.thumb_func
  24              		.type	EEPROM_Write_Page, %function
  25              	EEPROM_Write_Page:
  26              	.LFB63:
  27              		.file 1 "main.c"
   1:main.c        **** /* ========================================
   2:main.c        ****  *
   3:main.c        ****  * Copyright YOUR COMPANY, THE YEAR
   4:main.c        ****  * All Rights Reserved
   5:main.c        ****  * UNPUBLISHED, LICENSED SOFTWARE.
   6:main.c        ****  *
   7:main.c        ****  * CONFIDENTIAL AND PROPRIETARY INFORMATION
   8:main.c        ****  * WHICH IS THE PROPERTY OF your company.
   9:main.c        ****  *
  10:main.c        ****  * ========================================
  11:main.c        **** */
  12:main.c        **** #include "project.h"
  13:main.c        **** 
  14:main.c        **** uint8 EEPROM_data[256];
  15:main.c        **** uint8 test_data[256];
  16:main.c        **** 
  17:main.c        **** uint8 EEPROM_Write_Page(uint8 Slave_Address, uint8 Page_Address, uint8 *Test_Byte)
  18:main.c        **** {
  28              		.loc 1 18 0
  29              		.cfi_startproc
  30              		@ args = 0, pretend = 0, frame = 40
  31              		@ frame_needed = 0, uses_anonymous_args = 0
  32              	.LVL0:
  33 0000 10B5     		push	{r4, lr}
  34              		.cfi_def_cfa_offset 8
  35              		.cfi_offset 4, -8
  36              		.cfi_offset 14, -4
  37 0002 8AB0     		sub	sp, sp, #40
  38              		.cfi_def_cfa_offset 48
  39 0004 0446     		mov	r4, r0
ARM GAS  C:\Users\GEORGE~1\AppData\Local\Temp\ccqapVKD.s 			page 2


  19:main.c        ****     
  20:main.c        ****     uint8 dataout[17];
  21:main.c        ****     uint8 datain[16];
  22:main.c        ****    volatile uint8 error;
  23:main.c        ****     uint8 i;
  24:main.c        ****     
  25:main.c        ****     
  26:main.c        ****     
  27:main.c        ****     dataout[0] = Page_Address&0x00FF;
  40              		.loc 1 27 0
  41 0006 8DF81410 		strb	r1, [sp, #20]
  42              	.LVL1:
  28:main.c        ****     for(i=1;i<17;i++)
  43              		.loc 1 28 0
  44 000a 0123     		movs	r3, #1
  45 000c 08E0     		b	.L2
  46              	.LVL2:
  47              	.L3:
  29:main.c        ****     {
  30:main.c        ****         dataout[i] = Test_Byte[i-1];
  48              		.loc 1 30 0 discriminator 3
  49 000e D118     		adds	r1, r2, r3
  50 0010 11F8010C 		ldrb	r0, [r1, #-1]	@ zero_extendqisi2
  51 0014 0AA9     		add	r1, sp, #40
  52 0016 1944     		add	r1, r1, r3
  53 0018 01F8140C 		strb	r0, [r1, #-20]
  28:main.c        ****     for(i=1;i<17;i++)
  54              		.loc 1 28 0 discriminator 3
  55 001c 0133     		adds	r3, r3, #1
  56              	.LVL3:
  57 001e DBB2     		uxtb	r3, r3
  58              	.LVL4:
  59              	.L2:
  28:main.c        ****     for(i=1;i<17;i++)
  60              		.loc 1 28 0 is_stmt 0 discriminator 1
  61 0020 102B     		cmp	r3, #16
  62 0022 F4D9     		bls	.L3
  31:main.c        ****     }
  32:main.c        ****     error = I2C_1_MasterWriteBuf(Slave_Address, dataout, 17, I2C_1_MODE_COMPLETE_XFER);
  63              		.loc 1 32 0 is_stmt 1
  64 0024 0023     		movs	r3, #0
  65              	.LVL5:
  66 0026 1122     		movs	r2, #17
  67              	.LVL6:
  68 0028 05A9     		add	r1, sp, #20
  69 002a 2046     		mov	r0, r4
  70 002c FFF7FEFF 		bl	I2C_1_MasterWriteBuf
  71              	.LVL7:
  72 0030 8DF80300 		strb	r0, [sp, #3]
  33:main.c        ****     
  34:main.c        ****     CyDelayUs(5010);
  73              		.loc 1 34 0
  74 0034 41F29230 		movw	r0, #5010
  75 0038 FFF7FEFF 		bl	CyDelayUs
  76              	.LVL8:
  35:main.c        ****     
  36:main.c        ****     error = error + I2C_1_MasterWriteBuf(Slave_Address, dataout, 1, I2C_1_MODE_NO_STOP);
ARM GAS  C:\Users\GEORGE~1\AppData\Local\Temp\ccqapVKD.s 			page 3


  77              		.loc 1 36 0
  78 003c 0223     		movs	r3, #2
  79 003e 0122     		movs	r2, #1
  80 0040 05A9     		add	r1, sp, #20
  81 0042 2046     		mov	r0, r4
  82 0044 FFF7FEFF 		bl	I2C_1_MasterWriteBuf
  83              	.LVL9:
  84 0048 9DF80330 		ldrb	r3, [sp, #3]	@ zero_extendqisi2
  85 004c 1844     		add	r0, r0, r3
  86 004e C3B2     		uxtb	r3, r0
  87 0050 8DF80330 		strb	r3, [sp, #3]
  37:main.c        ****     CyDelayUs(100);
  88              		.loc 1 37 0
  89 0054 6420     		movs	r0, #100
  90 0056 FFF7FEFF 		bl	CyDelayUs
  91              	.LVL10:
  38:main.c        ****     error = error + I2C_1_MasterReadBuf(Slave_Address, datain, 16, I2C_1_MODE_REPEAT_START);
  92              		.loc 1 38 0
  93 005a 0123     		movs	r3, #1
  94 005c 1022     		movs	r2, #16
  95 005e 01A9     		add	r1, sp, #4
  96 0060 2046     		mov	r0, r4
  97 0062 FFF7FEFF 		bl	I2C_1_MasterReadBuf
  98              	.LVL11:
  99 0066 9DF80330 		ldrb	r3, [sp, #3]	@ zero_extendqisi2
 100 006a 1844     		add	r0, r0, r3
 101 006c C3B2     		uxtb	r3, r0
 102 006e 8DF80330 		strb	r3, [sp, #3]
  39:main.c        ****     CyDelayUs(1000);
 103              		.loc 1 39 0
 104 0072 4FF47A70 		mov	r0, #1000
 105 0076 FFF7FEFF 		bl	CyDelayUs
 106              	.LVL12:
  40:main.c        ****     
  41:main.c        ****     for(i=0;i<16;i++)
 107              		.loc 1 41 0
 108 007a 0021     		movs	r1, #0
 109 007c 0CE0     		b	.L4
 110              	.LVL13:
 111              	.L5:
  42:main.c        ****     {
  43:main.c        ****         error = error + (datain[0] - dataout[1]);
 112              		.loc 1 43 0 discriminator 3
 113 007e 9DF80420 		ldrb	r2, [sp, #4]	@ zero_extendqisi2
 114 0082 9DF81530 		ldrb	r3, [sp, #21]	@ zero_extendqisi2
 115 0086 9DF80300 		ldrb	r0, [sp, #3]	@ zero_extendqisi2
 116 008a D31A     		subs	r3, r2, r3
 117 008c 0344     		add	r3, r3, r0
 118 008e DBB2     		uxtb	r3, r3
 119 0090 8DF80330 		strb	r3, [sp, #3]
  41:main.c        ****     {
 120              		.loc 1 41 0 discriminator 3
 121 0094 0131     		adds	r1, r1, #1
 122              	.LVL14:
 123 0096 C9B2     		uxtb	r1, r1
 124              	.LVL15:
 125              	.L4:
ARM GAS  C:\Users\GEORGE~1\AppData\Local\Temp\ccqapVKD.s 			page 4


  41:main.c        ****     {
 126              		.loc 1 41 0 is_stmt 0 discriminator 1
 127 0098 0F29     		cmp	r1, #15
 128 009a F0D9     		bls	.L5
  44:main.c        ****     }
  45:main.c        ****     return(error);
 129              		.loc 1 45 0 is_stmt 1
 130 009c 9DF80300 		ldrb	r0, [sp, #3]	@ zero_extendqisi2
  46:main.c        **** }
 131              		.loc 1 46 0
 132 00a0 0AB0     		add	sp, sp, #40
 133              		.cfi_def_cfa_offset 8
 134              		@ sp needed
 135 00a2 10BD     		pop	{r4, pc}
 136              		.cfi_endproc
 137              	.LFE63:
 138              		.size	EEPROM_Write_Page, .-EEPROM_Write_Page
 139              		.section	.text.EEPROM_Read_Page,"ax",%progbits
 140              		.align	2
 141              		.global	EEPROM_Read_Page
 142              		.thumb
 143              		.thumb_func
 144              		.type	EEPROM_Read_Page, %function
 145              	EEPROM_Read_Page:
 146              	.LFB64:
  47:main.c        **** 
  48:main.c        **** uint8 EEPROM_Read_Page(uint8 Slave_Address, uint8 Page_Address, uint8 *Test_Byte)
  49:main.c        **** {
 147              		.loc 1 49 0
 148              		.cfi_startproc
 149              		@ args = 0, pretend = 0, frame = 8
 150              		@ frame_needed = 0, uses_anonymous_args = 0
 151              	.LVL16:
 152 0000 70B5     		push	{r4, r5, r6, lr}
 153              		.cfi_def_cfa_offset 16
 154              		.cfi_offset 4, -16
 155              		.cfi_offset 5, -12
 156              		.cfi_offset 6, -8
 157              		.cfi_offset 14, -4
 158 0002 82B0     		sub	sp, sp, #8
 159              		.cfi_def_cfa_offset 24
 160 0004 0546     		mov	r5, r0
 161 0006 1646     		mov	r6, r2
 162 0008 02AC     		add	r4, sp, #8
 163 000a 04F8011D 		strb	r1, [r4, #-1]!
  50:main.c        ****     
  51:main.c        ****     uint8 error;
  52:main.c        ****           
  53:main.c        ****     error = I2C_1_MasterWriteBuf(Slave_Address, &Page_Address , 1, I2C_1_MODE_NO_STOP);
 164              		.loc 1 53 0
 165 000e 0223     		movs	r3, #2
 166 0010 0122     		movs	r2, #1
 167              	.LVL17:
 168 0012 2146     		mov	r1, r4
 169              	.LVL18:
 170 0014 FFF7FEFF 		bl	I2C_1_MasterWriteBuf
 171              	.LVL19:
ARM GAS  C:\Users\GEORGE~1\AppData\Local\Temp\ccqapVKD.s 			page 5


 172 0018 0446     		mov	r4, r0
 173              	.LVL20:
  54:main.c        ****     CyDelayUs(100);
 174              		.loc 1 54 0
 175 001a 6420     		movs	r0, #100
 176 001c FFF7FEFF 		bl	CyDelayUs
 177              	.LVL21:
  55:main.c        ****     error = error + I2C_1_MasterReadBuf(Slave_Address, Test_Byte, 16, I2C_1_MODE_REPEAT_START);
 178              		.loc 1 55 0
 179 0020 0123     		movs	r3, #1
 180 0022 1022     		movs	r2, #16
 181 0024 3146     		mov	r1, r6
 182 0026 2846     		mov	r0, r5
 183 0028 FFF7FEFF 		bl	I2C_1_MasterReadBuf
 184              	.LVL22:
 185 002c 2044     		add	r0, r0, r4
 186 002e C4B2     		uxtb	r4, r0
 187              	.LVL23:
  56:main.c        ****     CyDelayUs(1000);
 188              		.loc 1 56 0
 189 0030 4FF47A70 		mov	r0, #1000
 190 0034 FFF7FEFF 		bl	CyDelayUs
 191              	.LVL24:
  57:main.c        ****     
  58:main.c        ****     return(error);
  59:main.c        **** }
 192              		.loc 1 59 0
 193 0038 2046     		mov	r0, r4
 194 003a 02B0     		add	sp, sp, #8
 195              		.cfi_def_cfa_offset 16
 196              	.LVL25:
 197              		@ sp needed
 198 003c 70BD     		pop	{r4, r5, r6, pc}
 199              		.cfi_endproc
 200              	.LFE64:
 201              		.size	EEPROM_Read_Page, .-EEPROM_Read_Page
 202 003e 00BF     		.section	.text.main,"ax",%progbits
 203              		.align	2
 204              		.global	main
 205              		.thumb
 206              		.thumb_func
 207              		.type	main, %function
 208              	main:
 209              	.LFB65:
  60:main.c        **** 
  61:main.c        **** int main(void)
  62:main.c        **** {
 210              		.loc 1 62 0
 211              		.cfi_startproc
 212              		@ args = 0, pretend = 0, frame = 0
 213              		@ frame_needed = 0, uses_anonymous_args = 0
 214 0000 38B5     		push	{r3, r4, r5, lr}
 215              		.cfi_def_cfa_offset 16
 216              		.cfi_offset 3, -16
 217              		.cfi_offset 4, -12
 218              		.cfi_offset 5, -8
 219              		.cfi_offset 14, -4
ARM GAS  C:\Users\GEORGE~1\AppData\Local\Temp\ccqapVKD.s 			page 6


 220              	.LVL26:
  63:main.c        ****     uint8 j;
  64:main.c        ****     uint8 error = 0;
  65:main.c        ****     
  66:main.c        ****     uint16 i;
  67:main.c        ****         
  68:main.c        ****     CyGlobalIntEnable; /* Enable global interrupts. */
 221              		.loc 1 68 0
 222              		.syntax unified
 223              	@ 68 "main.c" 1
 224 0002 62B6     		CPSIE   i
 225              	@ 0 "" 2
  69:main.c        **** 
  70:main.c        ****     I2C_1_Start();
 226              		.loc 1 70 0
 227              		.thumb
 228              		.syntax unified
 229 0004 FFF7FEFF 		bl	I2C_1_Start
 230              	.LVL27:
  71:main.c        ****     
  72:main.c        ****     JapanSensor_Start();
 231              		.loc 1 72 0
 232 0008 FFF7FEFF 		bl	JapanSensor_Start
 233              	.LVL28:
  73:main.c        ****     Supply_Start();
 234              		.loc 1 73 0
 235 000c FFF7FEFF 		bl	Supply_Start
 236              	.LVL29:
  74:main.c        ****     Shunt_Start();
 237              		.loc 1 74 0
 238 0010 FFF7FEFF 		bl	Shunt_Start
 239              	.LVL30:
  75:main.c        ****     PWM_1_Start();
 240              		.loc 1 75 0
 241 0014 FFF7FEFF 		bl	PWM_1_Start
 242              	.LVL31:
  76:main.c        ****     
  77:main.c        ****     
  78:main.c        ****     
  79:main.c        ****     
  80:main.c        ****     for(i=0;i<256;i++)
 243              		.loc 1 80 0
 244 0018 0023     		movs	r3, #0
 245 001a 03E0     		b	.L10
 246              	.LVL32:
 247              	.L11:
  81:main.c        ****     {
  82:main.c        ****         test_data[i] = (uint8)(i&0x00FF);
 248              		.loc 1 82 0 discriminator 3
 249 001c 1A4A     		ldr	r2, .L17
 250 001e D354     		strb	r3, [r2, r3]
  80:main.c        ****     {
 251              		.loc 1 80 0 discriminator 3
 252 0020 0133     		adds	r3, r3, #1
 253              	.LVL33:
 254 0022 9BB2     		uxth	r3, r3
 255              	.LVL34:
ARM GAS  C:\Users\GEORGE~1\AppData\Local\Temp\ccqapVKD.s 			page 7


 256              	.L10:
  80:main.c        ****     {
 257              		.loc 1 80 0 is_stmt 0 discriminator 1
 258 0024 FF2B     		cmp	r3, #255
 259 0026 F9D9     		bls	.L11
 260 0028 0024     		movs	r4, #0
 261 002a 2546     		mov	r5, r4
 262 002c 0BE0     		b	.L12
 263              	.LVL35:
 264              	.L13:
  83:main.c        ****     }
  84:main.c        ****    
  85:main.c        ****     for(j=0;j<16;j++)
  86:main.c        ****     {
  87:main.c        ****         
  88:main.c        ****         error = error + EEPROM_Write_Page(0x50, (j<<4),(uint8 *) &test_data[j*16]);
 265              		.loc 1 88 0 is_stmt 1 discriminator 3
 266 002e 2901     		lsls	r1, r5, #4
 267 0030 154A     		ldr	r2, .L17
 268 0032 0A44     		add	r2, r2, r1
 269 0034 01F0F001 		and	r1, r1, #240
 270 0038 5020     		movs	r0, #80
 271 003a FFF7FEFF 		bl	EEPROM_Write_Page
 272              	.LVL36:
 273 003e 2044     		add	r0, r0, r4
 274 0040 C4B2     		uxtb	r4, r0
 275              	.LVL37:
  85:main.c        ****     {
 276              		.loc 1 85 0 discriminator 3
 277 0042 0135     		adds	r5, r5, #1
 278              	.LVL38:
 279 0044 EDB2     		uxtb	r5, r5
 280              	.LVL39:
 281              	.L12:
  85:main.c        ****     {
 282              		.loc 1 85 0 is_stmt 0 discriminator 1
 283 0046 0F2D     		cmp	r5, #15
 284 0048 F1D9     		bls	.L13
  89:main.c        ****        
  90:main.c        ****     }
  91:main.c        ****     LED3Drive_Write(0);
 285              		.loc 1 91 0 is_stmt 1
 286 004a 0020     		movs	r0, #0
 287 004c FFF7FEFF 		bl	LED3Drive_Write
 288              	.LVL40:
  92:main.c        ****     for(j=0;j<16;j++)
 289              		.loc 1 92 0
 290 0050 0025     		movs	r5, #0
 291 0052 11E0     		b	.L14
 292              	.LVL41:
 293              	.L15:
  93:main.c        ****     {
  94:main.c        ****         LED3Drive_Write(1);
 294              		.loc 1 94 0 discriminator 3
 295 0054 0120     		movs	r0, #1
 296 0056 FFF7FEFF 		bl	LED3Drive_Write
 297              	.LVL42:
ARM GAS  C:\Users\GEORGE~1\AppData\Local\Temp\ccqapVKD.s 			page 8


  95:main.c        ****         error = error + EEPROM_Read_Page(0x50, (j<<4), (uint8 *)&EEPROM_data[j*16]);
 298              		.loc 1 95 0 discriminator 3
 299 005a 2901     		lsls	r1, r5, #4
 300 005c 0B4A     		ldr	r2, .L17+4
 301 005e 0A44     		add	r2, r2, r1
 302 0060 01F0F001 		and	r1, r1, #240
 303 0064 5020     		movs	r0, #80
 304 0066 FFF7FEFF 		bl	EEPROM_Read_Page
 305              	.LVL43:
 306 006a 2044     		add	r0, r0, r4
 307 006c C4B2     		uxtb	r4, r0
 308              	.LVL44:
  96:main.c        ****         LED3Drive_Write(0);
 309              		.loc 1 96 0 discriminator 3
 310 006e 0020     		movs	r0, #0
 311 0070 FFF7FEFF 		bl	LED3Drive_Write
 312              	.LVL45:
  92:main.c        ****     {
 313              		.loc 1 92 0 discriminator 3
 314 0074 0135     		adds	r5, r5, #1
 315              	.LVL46:
 316 0076 EDB2     		uxtb	r5, r5
 317              	.LVL47:
 318              	.L14:
  92:main.c        ****     {
 319              		.loc 1 92 0 is_stmt 0 discriminator 1
 320 0078 0F2D     		cmp	r5, #15
 321 007a EBD9     		bls	.L15
  97:main.c        ****     }
  98:main.c        ****      
  99:main.c        ****     CyDelayUs(1000);
 322              		.loc 1 99 0 is_stmt 1
 323 007c 4FF47A70 		mov	r0, #1000
 324 0080 FFF7FEFF 		bl	CyDelayUs
 325              	.LVL48:
 100:main.c        ****     
 101:main.c        ****     
 102:main.c        ****     return(error);
 103:main.c        **** }
 326              		.loc 1 103 0
 327 0084 2046     		mov	r0, r4
 328 0086 38BD     		pop	{r3, r4, r5, pc}
 329              	.LVL49:
 330              	.L18:
 331              		.align	2
 332              	.L17:
 333 0088 00000000 		.word	test_data
 334 008c 00000000 		.word	EEPROM_data
 335              		.cfi_endproc
 336              	.LFE65:
 337              		.size	main, .-main
 338              		.comm	test_data,256,4
 339              		.comm	EEPROM_data,256,4
 340              		.text
 341              	.Letext0:
 342              		.file 2 "c:\\program files (x86)\\cypress\\psoc creator\\4.2\\psoc creator\\import\\gnu\\arm\\5.4.
 343              		.file 3 "c:\\program files (x86)\\cypress\\psoc creator\\4.2\\psoc creator\\import\\gnu\\arm\\5.4.
ARM GAS  C:\Users\GEORGE~1\AppData\Local\Temp\ccqapVKD.s 			page 9


 344              		.file 4 "Generated_Source\\PSoC5/cytypes.h"
 345              		.file 5 "Generated_Source\\PSoC5/core_cm3.h"
 346              		.file 6 "Generated_Source\\PSoC5/I2C_1.h"
 347              		.file 7 "Generated_Source\\PSoC5/CyLib.h"
 348              		.file 8 "Generated_Source\\PSoC5/JapanSensor.h"
 349              		.file 9 "Generated_Source\\PSoC5/Supply.h"
 350              		.file 10 "Generated_Source\\PSoC5/Shunt.h"
 351              		.file 11 "Generated_Source\\PSoC5/PWM_1.h"
 352              		.file 12 "Generated_Source\\PSoC5/LED3Drive.h"