ARM GAS  C:\Users\GEORGE~1\AppData\Local\Temp\cczB7MeH.s 			page 1


   1              		.syntax unified
   2              		.cpu cortex-m3
   3              		.fpu softvfp
   4              		.eabi_attribute 20, 1
   5              		.eabi_attribute 21, 1
   6              		.eabi_attribute 23, 3
   7              		.eabi_attribute 24, 1
   8              		.eabi_attribute 25, 1
   9              		.eabi_attribute 26, 1
  10              		.eabi_attribute 30, 1
  11              		.eabi_attribute 34, 1
  12              		.eabi_attribute 18, 4
  13              		.thumb
  14              		.syntax unified
  15              		.file	"StepperCount.c"
  16              		.text
  17              	.Ltext0:
  18              		.cfi_sections	.debug_frame
  19              		.section	.text.StepperCount_Enable,"ax",%progbits
  20              		.align	2
  21              		.global	StepperCount_Enable
  22              		.thumb
  23              		.thumb_func
  24              		.type	StepperCount_Enable, %function
  25              	StepperCount_Enable:
  26              	.LFB1:
  27              		.file 1 "Generated_Source\\PSoC5\\StepperCount.c"
   1:Generated_Source\PSoC5/StepperCount.c **** /*******************************************************************************
   2:Generated_Source\PSoC5/StepperCount.c **** * File Name: StepperCount.c  
   3:Generated_Source\PSoC5/StepperCount.c **** * Version 3.0
   4:Generated_Source\PSoC5/StepperCount.c **** *
   5:Generated_Source\PSoC5/StepperCount.c **** *  Description:
   6:Generated_Source\PSoC5/StepperCount.c **** *     The Counter component consists of a 8, 16, 24 or 32-bit counter with
   7:Generated_Source\PSoC5/StepperCount.c **** *     a selectable period between 2 and 2^Width - 1.  
   8:Generated_Source\PSoC5/StepperCount.c **** *
   9:Generated_Source\PSoC5/StepperCount.c **** *   Note:
  10:Generated_Source\PSoC5/StepperCount.c **** *     None
  11:Generated_Source\PSoC5/StepperCount.c **** *
  12:Generated_Source\PSoC5/StepperCount.c **** ********************************************************************************
  13:Generated_Source\PSoC5/StepperCount.c **** * Copyright 2008-2012, Cypress Semiconductor Corporation.  All rights reserved.
  14:Generated_Source\PSoC5/StepperCount.c **** * You may use this file only in accordance with the license, terms, conditions, 
  15:Generated_Source\PSoC5/StepperCount.c **** * disclaimers, and limitations in the end user license agreement accompanying 
  16:Generated_Source\PSoC5/StepperCount.c **** * the software package with which this file was provided.
  17:Generated_Source\PSoC5/StepperCount.c **** *******************************************************************************/
  18:Generated_Source\PSoC5/StepperCount.c **** 
  19:Generated_Source\PSoC5/StepperCount.c **** #include "StepperCount.h"
  20:Generated_Source\PSoC5/StepperCount.c **** 
  21:Generated_Source\PSoC5/StepperCount.c **** uint8 StepperCount_initVar = 0u;
  22:Generated_Source\PSoC5/StepperCount.c **** 
  23:Generated_Source\PSoC5/StepperCount.c **** 
  24:Generated_Source\PSoC5/StepperCount.c **** /*******************************************************************************
  25:Generated_Source\PSoC5/StepperCount.c **** * Function Name: StepperCount_Init
  26:Generated_Source\PSoC5/StepperCount.c **** ********************************************************************************
  27:Generated_Source\PSoC5/StepperCount.c **** * Summary:
  28:Generated_Source\PSoC5/StepperCount.c **** *     Initialize to the schematic state
  29:Generated_Source\PSoC5/StepperCount.c **** * 
  30:Generated_Source\PSoC5/StepperCount.c **** * Parameters:  
ARM GAS  C:\Users\GEORGE~1\AppData\Local\Temp\cczB7MeH.s 			page 2


  31:Generated_Source\PSoC5/StepperCount.c **** *  void  
  32:Generated_Source\PSoC5/StepperCount.c **** *
  33:Generated_Source\PSoC5/StepperCount.c **** * Return: 
  34:Generated_Source\PSoC5/StepperCount.c **** *  void
  35:Generated_Source\PSoC5/StepperCount.c **** *
  36:Generated_Source\PSoC5/StepperCount.c **** *******************************************************************************/
  37:Generated_Source\PSoC5/StepperCount.c **** void StepperCount_Init(void) 
  38:Generated_Source\PSoC5/StepperCount.c **** {
  39:Generated_Source\PSoC5/StepperCount.c ****         #if (!StepperCount_UsingFixedFunction && !StepperCount_ControlRegRemoved)
  40:Generated_Source\PSoC5/StepperCount.c ****             uint8 ctrl;
  41:Generated_Source\PSoC5/StepperCount.c ****         #endif /* (!StepperCount_UsingFixedFunction && !StepperCount_ControlRegRemoved) */
  42:Generated_Source\PSoC5/StepperCount.c ****         
  43:Generated_Source\PSoC5/StepperCount.c ****         #if(!StepperCount_UsingFixedFunction) 
  44:Generated_Source\PSoC5/StepperCount.c ****             /* Interrupt State Backup for Critical Region*/
  45:Generated_Source\PSoC5/StepperCount.c ****             uint8 StepperCount_interruptState;
  46:Generated_Source\PSoC5/StepperCount.c ****         #endif /* (!StepperCount_UsingFixedFunction) */
  47:Generated_Source\PSoC5/StepperCount.c ****         
  48:Generated_Source\PSoC5/StepperCount.c ****         #if (StepperCount_UsingFixedFunction)
  49:Generated_Source\PSoC5/StepperCount.c ****             /* Clear all bits but the enable bit (if it's already set for Timer operation */
  50:Generated_Source\PSoC5/StepperCount.c ****             StepperCount_CONTROL &= StepperCount_CTRL_ENABLE;
  51:Generated_Source\PSoC5/StepperCount.c ****             
  52:Generated_Source\PSoC5/StepperCount.c ****             /* Clear the mode bits for continuous run mode */
  53:Generated_Source\PSoC5/StepperCount.c ****             #if (CY_PSOC5A)
  54:Generated_Source\PSoC5/StepperCount.c ****                 StepperCount_CONTROL2 &= ((uint8)(~StepperCount_CTRL_MODE_MASK));
  55:Generated_Source\PSoC5/StepperCount.c ****             #endif /* (CY_PSOC5A) */
  56:Generated_Source\PSoC5/StepperCount.c ****             #if (CY_PSOC3 || CY_PSOC5LP)
  57:Generated_Source\PSoC5/StepperCount.c ****                 StepperCount_CONTROL3 &= ((uint8)(~StepperCount_CTRL_MODE_MASK));                
  58:Generated_Source\PSoC5/StepperCount.c ****             #endif /* (CY_PSOC3 || CY_PSOC5LP) */
  59:Generated_Source\PSoC5/StepperCount.c ****             /* Check if One Shot mode is enabled i.e. RunMode !=0*/
  60:Generated_Source\PSoC5/StepperCount.c ****             #if (StepperCount_RunModeUsed != 0x0u)
  61:Generated_Source\PSoC5/StepperCount.c ****                 /* Set 3rd bit of Control register to enable one shot mode */
  62:Generated_Source\PSoC5/StepperCount.c ****                 StepperCount_CONTROL |= StepperCount_ONESHOT;
  63:Generated_Source\PSoC5/StepperCount.c ****             #endif /* (StepperCount_RunModeUsed != 0x0u) */
  64:Generated_Source\PSoC5/StepperCount.c ****             
  65:Generated_Source\PSoC5/StepperCount.c ****             /* Set the IRQ to use the status register interrupts */
  66:Generated_Source\PSoC5/StepperCount.c ****             StepperCount_CONTROL2 |= StepperCount_CTRL2_IRQ_SEL;
  67:Generated_Source\PSoC5/StepperCount.c ****             
  68:Generated_Source\PSoC5/StepperCount.c ****             /* Clear and Set SYNCTC and SYNCCMP bits of RT1 register */
  69:Generated_Source\PSoC5/StepperCount.c ****             StepperCount_RT1 &= ((uint8)(~StepperCount_RT1_MASK));
  70:Generated_Source\PSoC5/StepperCount.c ****             StepperCount_RT1 |= StepperCount_SYNC;     
  71:Generated_Source\PSoC5/StepperCount.c ****                     
  72:Generated_Source\PSoC5/StepperCount.c ****             /*Enable DSI Sync all all inputs of the Timer*/
  73:Generated_Source\PSoC5/StepperCount.c ****             StepperCount_RT1 &= ((uint8)(~StepperCount_SYNCDSI_MASK));
  74:Generated_Source\PSoC5/StepperCount.c ****             StepperCount_RT1 |= StepperCount_SYNCDSI_EN;
  75:Generated_Source\PSoC5/StepperCount.c **** 
  76:Generated_Source\PSoC5/StepperCount.c ****         #else
  77:Generated_Source\PSoC5/StepperCount.c ****             #if(!StepperCount_ControlRegRemoved)
  78:Generated_Source\PSoC5/StepperCount.c ****             /* Set the default compare mode defined in the parameter */
  79:Generated_Source\PSoC5/StepperCount.c ****             ctrl = StepperCount_CONTROL & ((uint8)(~StepperCount_CTRL_CMPMODE_MASK));
  80:Generated_Source\PSoC5/StepperCount.c ****             StepperCount_CONTROL = ctrl | StepperCount_DEFAULT_COMPARE_MODE;
  81:Generated_Source\PSoC5/StepperCount.c ****             
  82:Generated_Source\PSoC5/StepperCount.c ****             /* Set the default capture mode defined in the parameter */
  83:Generated_Source\PSoC5/StepperCount.c ****             ctrl = StepperCount_CONTROL & ((uint8)(~StepperCount_CTRL_CAPMODE_MASK));
  84:Generated_Source\PSoC5/StepperCount.c ****             
  85:Generated_Source\PSoC5/StepperCount.c ****             #if( 0 != StepperCount_CAPTURE_MODE_CONF)
  86:Generated_Source\PSoC5/StepperCount.c ****                 StepperCount_CONTROL = ctrl | StepperCount_DEFAULT_CAPTURE_MODE;
  87:Generated_Source\PSoC5/StepperCount.c ****             #else
ARM GAS  C:\Users\GEORGE~1\AppData\Local\Temp\cczB7MeH.s 			page 3


  88:Generated_Source\PSoC5/StepperCount.c ****                 StepperCount_CONTROL = ctrl;
  89:Generated_Source\PSoC5/StepperCount.c ****             #endif /* 0 != StepperCount_CAPTURE_MODE */ 
  90:Generated_Source\PSoC5/StepperCount.c ****             
  91:Generated_Source\PSoC5/StepperCount.c ****             #endif /* (!StepperCount_ControlRegRemoved) */
  92:Generated_Source\PSoC5/StepperCount.c ****         #endif /* (StepperCount_UsingFixedFunction) */
  93:Generated_Source\PSoC5/StepperCount.c ****         
  94:Generated_Source\PSoC5/StepperCount.c ****         /* Clear all data in the FIFO's */
  95:Generated_Source\PSoC5/StepperCount.c ****         #if (!StepperCount_UsingFixedFunction)
  96:Generated_Source\PSoC5/StepperCount.c ****             StepperCount_ClearFIFO();
  97:Generated_Source\PSoC5/StepperCount.c ****         #endif /* (!StepperCount_UsingFixedFunction) */
  98:Generated_Source\PSoC5/StepperCount.c ****         
  99:Generated_Source\PSoC5/StepperCount.c ****         /* Set Initial values from Configuration */
 100:Generated_Source\PSoC5/StepperCount.c ****         StepperCount_WritePeriod(StepperCount_INIT_PERIOD_VALUE);
 101:Generated_Source\PSoC5/StepperCount.c ****         #if (!(StepperCount_UsingFixedFunction && (CY_PSOC5A)))
 102:Generated_Source\PSoC5/StepperCount.c ****             StepperCount_WriteCounter(StepperCount_INIT_COUNTER_VALUE);
 103:Generated_Source\PSoC5/StepperCount.c ****         #endif /* (!(StepperCount_UsingFixedFunction && (CY_PSOC5A))) */
 104:Generated_Source\PSoC5/StepperCount.c ****         StepperCount_SetInterruptMode(StepperCount_INIT_INTERRUPTS_MASK);
 105:Generated_Source\PSoC5/StepperCount.c ****         
 106:Generated_Source\PSoC5/StepperCount.c ****         #if (!StepperCount_UsingFixedFunction)
 107:Generated_Source\PSoC5/StepperCount.c ****             /* Read the status register to clear the unwanted interrupts */
 108:Generated_Source\PSoC5/StepperCount.c ****             (void)StepperCount_ReadStatusRegister();
 109:Generated_Source\PSoC5/StepperCount.c ****             /* Set the compare value (only available to non-fixed function implementation */
 110:Generated_Source\PSoC5/StepperCount.c ****             StepperCount_WriteCompare(StepperCount_INIT_COMPARE_VALUE);
 111:Generated_Source\PSoC5/StepperCount.c ****             /* Use the interrupt output of the status register for IRQ output */
 112:Generated_Source\PSoC5/StepperCount.c ****             
 113:Generated_Source\PSoC5/StepperCount.c ****             /* CyEnterCriticalRegion and CyExitCriticalRegion are used to mark following region cri
 114:Generated_Source\PSoC5/StepperCount.c ****             /* Enter Critical Region*/
 115:Generated_Source\PSoC5/StepperCount.c ****             StepperCount_interruptState = CyEnterCriticalSection();
 116:Generated_Source\PSoC5/StepperCount.c ****             
 117:Generated_Source\PSoC5/StepperCount.c ****             StepperCount_STATUS_AUX_CTRL |= StepperCount_STATUS_ACTL_INT_EN_MASK;
 118:Generated_Source\PSoC5/StepperCount.c ****             
 119:Generated_Source\PSoC5/StepperCount.c ****             /* Exit Critical Region*/
 120:Generated_Source\PSoC5/StepperCount.c ****             CyExitCriticalSection(StepperCount_interruptState);
 121:Generated_Source\PSoC5/StepperCount.c ****             
 122:Generated_Source\PSoC5/StepperCount.c ****         #endif /* (!StepperCount_UsingFixedFunction) */
 123:Generated_Source\PSoC5/StepperCount.c **** }
 124:Generated_Source\PSoC5/StepperCount.c **** 
 125:Generated_Source\PSoC5/StepperCount.c **** 
 126:Generated_Source\PSoC5/StepperCount.c **** /*******************************************************************************
 127:Generated_Source\PSoC5/StepperCount.c **** * Function Name: StepperCount_Enable
 128:Generated_Source\PSoC5/StepperCount.c **** ********************************************************************************
 129:Generated_Source\PSoC5/StepperCount.c **** * Summary:
 130:Generated_Source\PSoC5/StepperCount.c **** *     Enable the Counter
 131:Generated_Source\PSoC5/StepperCount.c **** * 
 132:Generated_Source\PSoC5/StepperCount.c **** * Parameters:  
 133:Generated_Source\PSoC5/StepperCount.c **** *  void  
 134:Generated_Source\PSoC5/StepperCount.c **** *
 135:Generated_Source\PSoC5/StepperCount.c **** * Return: 
 136:Generated_Source\PSoC5/StepperCount.c **** *  void
 137:Generated_Source\PSoC5/StepperCount.c **** *
 138:Generated_Source\PSoC5/StepperCount.c **** * Side Effects: 
 139:Generated_Source\PSoC5/StepperCount.c **** *   If the Enable mode is set to Hardware only then this function has no effect 
 140:Generated_Source\PSoC5/StepperCount.c **** *   on the operation of the counter.
 141:Generated_Source\PSoC5/StepperCount.c **** *
 142:Generated_Source\PSoC5/StepperCount.c **** *******************************************************************************/
 143:Generated_Source\PSoC5/StepperCount.c **** void StepperCount_Enable(void) 
 144:Generated_Source\PSoC5/StepperCount.c **** {
ARM GAS  C:\Users\GEORGE~1\AppData\Local\Temp\cczB7MeH.s 			page 4


  28              		.loc 1 144 0
  29              		.cfi_startproc
  30              		@ args = 0, pretend = 0, frame = 0
  31              		@ frame_needed = 0, uses_anonymous_args = 0
  32              		@ link register save eliminated.
  33 0000 7047     		bx	lr
  34              		.cfi_endproc
  35              	.LFE1:
  36              		.size	StepperCount_Enable, .-StepperCount_Enable
  37 0002 00BF     		.section	.text.StepperCount_Stop,"ax",%progbits
  38              		.align	2
  39              		.global	StepperCount_Stop
  40              		.thumb
  41              		.thumb_func
  42              		.type	StepperCount_Stop, %function
  43              	StepperCount_Stop:
  44              	.LFB3:
 145:Generated_Source\PSoC5/StepperCount.c ****     /* Globally Enable the Fixed Function Block chosen */
 146:Generated_Source\PSoC5/StepperCount.c ****     #if (StepperCount_UsingFixedFunction)
 147:Generated_Source\PSoC5/StepperCount.c ****         StepperCount_GLOBAL_ENABLE |= StepperCount_BLOCK_EN_MASK;
 148:Generated_Source\PSoC5/StepperCount.c ****         StepperCount_GLOBAL_STBY_ENABLE |= StepperCount_BLOCK_STBY_EN_MASK;
 149:Generated_Source\PSoC5/StepperCount.c ****     #endif /* (StepperCount_UsingFixedFunction) */  
 150:Generated_Source\PSoC5/StepperCount.c ****         
 151:Generated_Source\PSoC5/StepperCount.c ****     /* Enable the counter from the control register  */
 152:Generated_Source\PSoC5/StepperCount.c ****     /* If Fixed Function then make sure Mode is set correctly */
 153:Generated_Source\PSoC5/StepperCount.c ****     /* else make sure reset is clear */
 154:Generated_Source\PSoC5/StepperCount.c ****     #if(!StepperCount_ControlRegRemoved || StepperCount_UsingFixedFunction)
 155:Generated_Source\PSoC5/StepperCount.c ****         StepperCount_CONTROL |= StepperCount_CTRL_ENABLE;                
 156:Generated_Source\PSoC5/StepperCount.c ****     #endif /* (!StepperCount_ControlRegRemoved || StepperCount_UsingFixedFunction) */
 157:Generated_Source\PSoC5/StepperCount.c ****     
 158:Generated_Source\PSoC5/StepperCount.c **** }
 159:Generated_Source\PSoC5/StepperCount.c **** 
 160:Generated_Source\PSoC5/StepperCount.c **** 
 161:Generated_Source\PSoC5/StepperCount.c **** /*******************************************************************************
 162:Generated_Source\PSoC5/StepperCount.c **** * Function Name: StepperCount_Start
 163:Generated_Source\PSoC5/StepperCount.c **** ********************************************************************************
 164:Generated_Source\PSoC5/StepperCount.c **** * Summary:
 165:Generated_Source\PSoC5/StepperCount.c **** *  Enables the counter for operation 
 166:Generated_Source\PSoC5/StepperCount.c **** *
 167:Generated_Source\PSoC5/StepperCount.c **** * Parameters:  
 168:Generated_Source\PSoC5/StepperCount.c **** *  void  
 169:Generated_Source\PSoC5/StepperCount.c **** *
 170:Generated_Source\PSoC5/StepperCount.c **** * Return: 
 171:Generated_Source\PSoC5/StepperCount.c **** *  void
 172:Generated_Source\PSoC5/StepperCount.c **** *
 173:Generated_Source\PSoC5/StepperCount.c **** * Global variables:
 174:Generated_Source\PSoC5/StepperCount.c **** *  StepperCount_initVar: Is modified when this function is called for the  
 175:Generated_Source\PSoC5/StepperCount.c **** *   first time. Is used to ensure that initialization happens only once.
 176:Generated_Source\PSoC5/StepperCount.c **** *
 177:Generated_Source\PSoC5/StepperCount.c **** *******************************************************************************/
 178:Generated_Source\PSoC5/StepperCount.c **** void StepperCount_Start(void) 
 179:Generated_Source\PSoC5/StepperCount.c **** {
 180:Generated_Source\PSoC5/StepperCount.c ****     if(StepperCount_initVar == 0u)
 181:Generated_Source\PSoC5/StepperCount.c ****     {
 182:Generated_Source\PSoC5/StepperCount.c ****         StepperCount_Init();
 183:Generated_Source\PSoC5/StepperCount.c ****         
 184:Generated_Source\PSoC5/StepperCount.c ****         StepperCount_initVar = 1u; /* Clear this bit for Initialization */        
ARM GAS  C:\Users\GEORGE~1\AppData\Local\Temp\cczB7MeH.s 			page 5


 185:Generated_Source\PSoC5/StepperCount.c ****     }
 186:Generated_Source\PSoC5/StepperCount.c ****     
 187:Generated_Source\PSoC5/StepperCount.c ****     /* Enable the Counter */
 188:Generated_Source\PSoC5/StepperCount.c ****     StepperCount_Enable();        
 189:Generated_Source\PSoC5/StepperCount.c **** }
 190:Generated_Source\PSoC5/StepperCount.c **** 
 191:Generated_Source\PSoC5/StepperCount.c **** 
 192:Generated_Source\PSoC5/StepperCount.c **** /*******************************************************************************
 193:Generated_Source\PSoC5/StepperCount.c **** * Function Name: StepperCount_Stop
 194:Generated_Source\PSoC5/StepperCount.c **** ********************************************************************************
 195:Generated_Source\PSoC5/StepperCount.c **** * Summary:
 196:Generated_Source\PSoC5/StepperCount.c **** * Halts the counter, but does not change any modes or disable interrupts.
 197:Generated_Source\PSoC5/StepperCount.c **** *
 198:Generated_Source\PSoC5/StepperCount.c **** * Parameters:  
 199:Generated_Source\PSoC5/StepperCount.c **** *  void  
 200:Generated_Source\PSoC5/StepperCount.c **** *
 201:Generated_Source\PSoC5/StepperCount.c **** * Return: 
 202:Generated_Source\PSoC5/StepperCount.c **** *  void
 203:Generated_Source\PSoC5/StepperCount.c **** *
 204:Generated_Source\PSoC5/StepperCount.c **** * Side Effects: If the Enable mode is set to Hardware only then this function
 205:Generated_Source\PSoC5/StepperCount.c **** *               has no effect on the operation of the counter.
 206:Generated_Source\PSoC5/StepperCount.c **** *
 207:Generated_Source\PSoC5/StepperCount.c **** *******************************************************************************/
 208:Generated_Source\PSoC5/StepperCount.c **** void StepperCount_Stop(void) 
 209:Generated_Source\PSoC5/StepperCount.c **** {
  45              		.loc 1 209 0
  46              		.cfi_startproc
  47              		@ args = 0, pretend = 0, frame = 0
  48              		@ frame_needed = 0, uses_anonymous_args = 0
  49              		@ link register save eliminated.
  50 0000 7047     		bx	lr
  51              		.cfi_endproc
  52              	.LFE3:
  53              		.size	StepperCount_Stop, .-StepperCount_Stop
  54 0002 00BF     		.section	.text.StepperCount_SetInterruptMode,"ax",%progbits
  55              		.align	2
  56              		.global	StepperCount_SetInterruptMode
  57              		.thumb
  58              		.thumb_func
  59              		.type	StepperCount_SetInterruptMode, %function
  60              	StepperCount_SetInterruptMode:
  61              	.LFB4:
 210:Generated_Source\PSoC5/StepperCount.c ****     /* Disable Counter */
 211:Generated_Source\PSoC5/StepperCount.c ****     #if(!StepperCount_ControlRegRemoved || StepperCount_UsingFixedFunction)
 212:Generated_Source\PSoC5/StepperCount.c ****         StepperCount_CONTROL &= ((uint8)(~StepperCount_CTRL_ENABLE));        
 213:Generated_Source\PSoC5/StepperCount.c ****     #endif /* (!StepperCount_ControlRegRemoved || StepperCount_UsingFixedFunction) */
 214:Generated_Source\PSoC5/StepperCount.c ****     
 215:Generated_Source\PSoC5/StepperCount.c ****     /* Globally disable the Fixed Function Block chosen */
 216:Generated_Source\PSoC5/StepperCount.c ****     #if (StepperCount_UsingFixedFunction)
 217:Generated_Source\PSoC5/StepperCount.c ****         StepperCount_GLOBAL_ENABLE &= ((uint8)(~StepperCount_BLOCK_EN_MASK));
 218:Generated_Source\PSoC5/StepperCount.c ****         StepperCount_GLOBAL_STBY_ENABLE &= ((uint8)(~StepperCount_BLOCK_STBY_EN_MASK));
 219:Generated_Source\PSoC5/StepperCount.c ****     #endif /* (StepperCount_UsingFixedFunction) */
 220:Generated_Source\PSoC5/StepperCount.c **** }
 221:Generated_Source\PSoC5/StepperCount.c **** 
 222:Generated_Source\PSoC5/StepperCount.c **** 
 223:Generated_Source\PSoC5/StepperCount.c **** /*******************************************************************************
 224:Generated_Source\PSoC5/StepperCount.c **** * Function Name: StepperCount_SetInterruptMode
ARM GAS  C:\Users\GEORGE~1\AppData\Local\Temp\cczB7MeH.s 			page 6


 225:Generated_Source\PSoC5/StepperCount.c **** ********************************************************************************
 226:Generated_Source\PSoC5/StepperCount.c **** * Summary:
 227:Generated_Source\PSoC5/StepperCount.c **** * Configures which interrupt sources are enabled to generate the final interrupt
 228:Generated_Source\PSoC5/StepperCount.c **** *
 229:Generated_Source\PSoC5/StepperCount.c **** * Parameters:  
 230:Generated_Source\PSoC5/StepperCount.c **** *  InterruptsMask: This parameter is an or'd collection of the status bits
 231:Generated_Source\PSoC5/StepperCount.c **** *                   which will be allowed to generate the counters interrupt.   
 232:Generated_Source\PSoC5/StepperCount.c **** *
 233:Generated_Source\PSoC5/StepperCount.c **** * Return: 
 234:Generated_Source\PSoC5/StepperCount.c **** *  void
 235:Generated_Source\PSoC5/StepperCount.c **** *
 236:Generated_Source\PSoC5/StepperCount.c **** *******************************************************************************/
 237:Generated_Source\PSoC5/StepperCount.c **** void StepperCount_SetInterruptMode(uint8 interruptsMask) 
 238:Generated_Source\PSoC5/StepperCount.c **** {
  62              		.loc 1 238 0
  63              		.cfi_startproc
  64              		@ args = 0, pretend = 0, frame = 0
  65              		@ frame_needed = 0, uses_anonymous_args = 0
  66              		@ link register save eliminated.
  67              	.LVL0:
 239:Generated_Source\PSoC5/StepperCount.c ****     StepperCount_STATUS_MASK = interruptsMask;
  68              		.loc 1 239 0
  69 0000 014B     		ldr	r3, .L4
  70 0002 1870     		strb	r0, [r3]
  71 0004 7047     		bx	lr
  72              	.L5:
  73 0006 00BF     		.align	2
  74              	.L4:
  75 0008 8F640040 		.word	1073767567
  76              		.cfi_endproc
  77              	.LFE4:
  78              		.size	StepperCount_SetInterruptMode, .-StepperCount_SetInterruptMode
  79              		.section	.text.StepperCount_ReadStatusRegister,"ax",%progbits
  80              		.align	2
  81              		.global	StepperCount_ReadStatusRegister
  82              		.thumb
  83              		.thumb_func
  84              		.type	StepperCount_ReadStatusRegister, %function
  85              	StepperCount_ReadStatusRegister:
  86              	.LFB5:
 240:Generated_Source\PSoC5/StepperCount.c **** }
 241:Generated_Source\PSoC5/StepperCount.c **** 
 242:Generated_Source\PSoC5/StepperCount.c **** 
 243:Generated_Source\PSoC5/StepperCount.c **** /*******************************************************************************
 244:Generated_Source\PSoC5/StepperCount.c **** * Function Name: StepperCount_ReadStatusRegister
 245:Generated_Source\PSoC5/StepperCount.c **** ********************************************************************************
 246:Generated_Source\PSoC5/StepperCount.c **** * Summary:
 247:Generated_Source\PSoC5/StepperCount.c **** *   Reads the status register and returns it's state. This function should use
 248:Generated_Source\PSoC5/StepperCount.c **** *       defined types for the bit-field information as the bits in this
 249:Generated_Source\PSoC5/StepperCount.c **** *       register may be permuteable.
 250:Generated_Source\PSoC5/StepperCount.c **** *
 251:Generated_Source\PSoC5/StepperCount.c **** * Parameters:  
 252:Generated_Source\PSoC5/StepperCount.c **** *  void
 253:Generated_Source\PSoC5/StepperCount.c **** *
 254:Generated_Source\PSoC5/StepperCount.c **** * Return: 
 255:Generated_Source\PSoC5/StepperCount.c **** *  (uint8) The contents of the status register
 256:Generated_Source\PSoC5/StepperCount.c **** *
ARM GAS  C:\Users\GEORGE~1\AppData\Local\Temp\cczB7MeH.s 			page 7


 257:Generated_Source\PSoC5/StepperCount.c **** * Side Effects:
 258:Generated_Source\PSoC5/StepperCount.c **** *   Status register bits may be clear on read. 
 259:Generated_Source\PSoC5/StepperCount.c **** *
 260:Generated_Source\PSoC5/StepperCount.c **** *******************************************************************************/
 261:Generated_Source\PSoC5/StepperCount.c **** uint8   StepperCount_ReadStatusRegister(void) 
 262:Generated_Source\PSoC5/StepperCount.c **** {
  87              		.loc 1 262 0
  88              		.cfi_startproc
  89              		@ args = 0, pretend = 0, frame = 0
  90              		@ frame_needed = 0, uses_anonymous_args = 0
  91              		@ link register save eliminated.
 263:Generated_Source\PSoC5/StepperCount.c ****     return StepperCount_STATUS;
  92              		.loc 1 263 0
  93 0000 014B     		ldr	r3, .L7
  94 0002 1878     		ldrb	r0, [r3]	@ zero_extendqisi2
 264:Generated_Source\PSoC5/StepperCount.c **** }
  95              		.loc 1 264 0
  96 0004 7047     		bx	lr
  97              	.L8:
  98 0006 00BF     		.align	2
  99              	.L7:
 100 0008 6F640040 		.word	1073767535
 101              		.cfi_endproc
 102              	.LFE5:
 103              		.size	StepperCount_ReadStatusRegister, .-StepperCount_ReadStatusRegister
 104              		.section	.text.StepperCount_WriteCounter,"ax",%progbits
 105              		.align	2
 106              		.global	StepperCount_WriteCounter
 107              		.thumb
 108              		.thumb_func
 109              		.type	StepperCount_WriteCounter, %function
 110              	StepperCount_WriteCounter:
 111              	.LFB6:
 265:Generated_Source\PSoC5/StepperCount.c **** 
 266:Generated_Source\PSoC5/StepperCount.c **** 
 267:Generated_Source\PSoC5/StepperCount.c **** #if(!StepperCount_ControlRegRemoved)
 268:Generated_Source\PSoC5/StepperCount.c **** /*******************************************************************************
 269:Generated_Source\PSoC5/StepperCount.c **** * Function Name: StepperCount_ReadControlRegister
 270:Generated_Source\PSoC5/StepperCount.c **** ********************************************************************************
 271:Generated_Source\PSoC5/StepperCount.c **** * Summary:
 272:Generated_Source\PSoC5/StepperCount.c **** *   Reads the control register and returns it's state. This function should use
 273:Generated_Source\PSoC5/StepperCount.c **** *       defined types for the bit-field information as the bits in this
 274:Generated_Source\PSoC5/StepperCount.c **** *       register may be permuteable.
 275:Generated_Source\PSoC5/StepperCount.c **** *
 276:Generated_Source\PSoC5/StepperCount.c **** * Parameters:  
 277:Generated_Source\PSoC5/StepperCount.c **** *  void
 278:Generated_Source\PSoC5/StepperCount.c **** *
 279:Generated_Source\PSoC5/StepperCount.c **** * Return: 
 280:Generated_Source\PSoC5/StepperCount.c **** *  (uint8) The contents of the control register
 281:Generated_Source\PSoC5/StepperCount.c **** *
 282:Generated_Source\PSoC5/StepperCount.c **** *******************************************************************************/
 283:Generated_Source\PSoC5/StepperCount.c **** uint8   StepperCount_ReadControlRegister(void) 
 284:Generated_Source\PSoC5/StepperCount.c **** {
 285:Generated_Source\PSoC5/StepperCount.c ****     return StepperCount_CONTROL;
 286:Generated_Source\PSoC5/StepperCount.c **** }
 287:Generated_Source\PSoC5/StepperCount.c **** 
 288:Generated_Source\PSoC5/StepperCount.c **** 
ARM GAS  C:\Users\GEORGE~1\AppData\Local\Temp\cczB7MeH.s 			page 8


 289:Generated_Source\PSoC5/StepperCount.c **** /*******************************************************************************
 290:Generated_Source\PSoC5/StepperCount.c **** * Function Name: StepperCount_WriteControlRegister
 291:Generated_Source\PSoC5/StepperCount.c **** ********************************************************************************
 292:Generated_Source\PSoC5/StepperCount.c **** * Summary:
 293:Generated_Source\PSoC5/StepperCount.c **** *   Sets the bit-field of the control register.  This function should use
 294:Generated_Source\PSoC5/StepperCount.c **** *       defined types for the bit-field information as the bits in this
 295:Generated_Source\PSoC5/StepperCount.c **** *       register may be permuteable.
 296:Generated_Source\PSoC5/StepperCount.c **** *
 297:Generated_Source\PSoC5/StepperCount.c **** * Parameters:  
 298:Generated_Source\PSoC5/StepperCount.c **** *  void
 299:Generated_Source\PSoC5/StepperCount.c **** *
 300:Generated_Source\PSoC5/StepperCount.c **** * Return: 
 301:Generated_Source\PSoC5/StepperCount.c **** *  (uint8) The contents of the control register
 302:Generated_Source\PSoC5/StepperCount.c **** *
 303:Generated_Source\PSoC5/StepperCount.c **** *******************************************************************************/
 304:Generated_Source\PSoC5/StepperCount.c **** void    StepperCount_WriteControlRegister(uint8 control) 
 305:Generated_Source\PSoC5/StepperCount.c **** {
 306:Generated_Source\PSoC5/StepperCount.c ****     StepperCount_CONTROL = control;
 307:Generated_Source\PSoC5/StepperCount.c **** }
 308:Generated_Source\PSoC5/StepperCount.c **** 
 309:Generated_Source\PSoC5/StepperCount.c **** #endif  /* (!StepperCount_ControlRegRemoved) */
 310:Generated_Source\PSoC5/StepperCount.c **** 
 311:Generated_Source\PSoC5/StepperCount.c **** 
 312:Generated_Source\PSoC5/StepperCount.c **** #if (!(StepperCount_UsingFixedFunction && (CY_PSOC5A)))
 313:Generated_Source\PSoC5/StepperCount.c **** /*******************************************************************************
 314:Generated_Source\PSoC5/StepperCount.c **** * Function Name: StepperCount_WriteCounter
 315:Generated_Source\PSoC5/StepperCount.c **** ********************************************************************************
 316:Generated_Source\PSoC5/StepperCount.c **** * Summary:
 317:Generated_Source\PSoC5/StepperCount.c **** *   This funtion is used to set the counter to a specific value
 318:Generated_Source\PSoC5/StepperCount.c **** *
 319:Generated_Source\PSoC5/StepperCount.c **** * Parameters:  
 320:Generated_Source\PSoC5/StepperCount.c **** *  counter:  New counter value. 
 321:Generated_Source\PSoC5/StepperCount.c **** *
 322:Generated_Source\PSoC5/StepperCount.c **** * Return: 
 323:Generated_Source\PSoC5/StepperCount.c **** *  void 
 324:Generated_Source\PSoC5/StepperCount.c **** *
 325:Generated_Source\PSoC5/StepperCount.c **** *******************************************************************************/
 326:Generated_Source\PSoC5/StepperCount.c **** void StepperCount_WriteCounter(uint32 counter) \
 327:Generated_Source\PSoC5/StepperCount.c ****                                    
 328:Generated_Source\PSoC5/StepperCount.c **** {
 112              		.loc 1 328 0
 113              		.cfi_startproc
 114              		@ args = 0, pretend = 0, frame = 0
 115              		@ frame_needed = 0, uses_anonymous_args = 0
 116              		@ link register save eliminated.
 117              	.LVL1:
 329:Generated_Source\PSoC5/StepperCount.c ****     #if(StepperCount_UsingFixedFunction)
 330:Generated_Source\PSoC5/StepperCount.c ****         /* assert if block is already enabled */
 331:Generated_Source\PSoC5/StepperCount.c ****         CYASSERT (0u == (StepperCount_GLOBAL_ENABLE & StepperCount_BLOCK_EN_MASK));
 332:Generated_Source\PSoC5/StepperCount.c ****         /* If block is disabled, enable it and then write the counter */
 333:Generated_Source\PSoC5/StepperCount.c ****         StepperCount_GLOBAL_ENABLE |= StepperCount_BLOCK_EN_MASK;
 334:Generated_Source\PSoC5/StepperCount.c ****         CY_SET_REG16(StepperCount_COUNTER_LSB_PTR, (uint16)counter);
 335:Generated_Source\PSoC5/StepperCount.c ****         StepperCount_GLOBAL_ENABLE &= ((uint8)(~StepperCount_BLOCK_EN_MASK));
 336:Generated_Source\PSoC5/StepperCount.c ****     #else
 337:Generated_Source\PSoC5/StepperCount.c ****         CY_SET_REG32(StepperCount_COUNTER_LSB_PTR, counter);
 118              		.loc 1 337 0
 119 0000 014B     		ldr	r3, .L10
ARM GAS  C:\Users\GEORGE~1\AppData\Local\Temp\cczB7MeH.s 			page 9


 120 0002 1860     		str	r0, [r3]
 121 0004 7047     		bx	lr
 122              	.L11:
 123 0006 00BF     		.align	2
 124              	.L10:
 125 0008 0C640040 		.word	1073767436
 126              		.cfi_endproc
 127              	.LFE6:
 128              		.size	StepperCount_WriteCounter, .-StepperCount_WriteCounter
 129              		.section	.text.StepperCount_ReadCounter,"ax",%progbits
 130              		.align	2
 131              		.global	StepperCount_ReadCounter
 132              		.thumb
 133              		.thumb_func
 134              		.type	StepperCount_ReadCounter, %function
 135              	StepperCount_ReadCounter:
 136              	.LFB7:
 338:Generated_Source\PSoC5/StepperCount.c ****     #endif /* (StepperCount_UsingFixedFunction) */
 339:Generated_Source\PSoC5/StepperCount.c **** }
 340:Generated_Source\PSoC5/StepperCount.c **** #endif /* (!(StepperCount_UsingFixedFunction && (CY_PSOC5A))) */
 341:Generated_Source\PSoC5/StepperCount.c **** 
 342:Generated_Source\PSoC5/StepperCount.c **** 
 343:Generated_Source\PSoC5/StepperCount.c **** /*******************************************************************************
 344:Generated_Source\PSoC5/StepperCount.c **** * Function Name: StepperCount_ReadCounter
 345:Generated_Source\PSoC5/StepperCount.c **** ********************************************************************************
 346:Generated_Source\PSoC5/StepperCount.c **** * Summary:
 347:Generated_Source\PSoC5/StepperCount.c **** * Returns the current value of the counter.  It doesn't matter
 348:Generated_Source\PSoC5/StepperCount.c **** * if the counter is enabled or running.
 349:Generated_Source\PSoC5/StepperCount.c **** *
 350:Generated_Source\PSoC5/StepperCount.c **** * Parameters:  
 351:Generated_Source\PSoC5/StepperCount.c **** *  void:  
 352:Generated_Source\PSoC5/StepperCount.c **** *
 353:Generated_Source\PSoC5/StepperCount.c **** * Return: 
 354:Generated_Source\PSoC5/StepperCount.c **** *  (uint32) The present value of the counter.
 355:Generated_Source\PSoC5/StepperCount.c **** *
 356:Generated_Source\PSoC5/StepperCount.c **** *******************************************************************************/
 357:Generated_Source\PSoC5/StepperCount.c **** uint32 StepperCount_ReadCounter(void) 
 358:Generated_Source\PSoC5/StepperCount.c **** {
 137              		.loc 1 358 0
 138              		.cfi_startproc
 139              		@ args = 0, pretend = 0, frame = 0
 140              		@ frame_needed = 0, uses_anonymous_args = 0
 141              		@ link register save eliminated.
 359:Generated_Source\PSoC5/StepperCount.c ****     /* Force capture by reading Accumulator */
 360:Generated_Source\PSoC5/StepperCount.c ****     /* Must first do a software capture to be able to read the counter */
 361:Generated_Source\PSoC5/StepperCount.c ****     /* It is up to the user code to make sure there isn't already captured data in the FIFO */
 362:Generated_Source\PSoC5/StepperCount.c ****     #if(StepperCount_UsingFixedFunction)
 363:Generated_Source\PSoC5/StepperCount.c **** 		(void)CY_GET_REG16(StepperCount_COUNTER_LSB_PTR);
 364:Generated_Source\PSoC5/StepperCount.c **** 	#else
 365:Generated_Source\PSoC5/StepperCount.c **** 		(void)CY_GET_REG8(StepperCount_COUNTER_LSB_PTR_8BIT);
 142              		.loc 1 365 0
 143 0000 024B     		ldr	r3, .L13
 144 0002 1B78     		ldrb	r3, [r3]	@ zero_extendqisi2
 366:Generated_Source\PSoC5/StepperCount.c **** 	#endif/* (StepperCount_UsingFixedFunction) */
 367:Generated_Source\PSoC5/StepperCount.c ****     
 368:Generated_Source\PSoC5/StepperCount.c ****     /* Read the data from the FIFO (or capture register for Fixed Function)*/
 369:Generated_Source\PSoC5/StepperCount.c ****     #if(StepperCount_UsingFixedFunction)
ARM GAS  C:\Users\GEORGE~1\AppData\Local\Temp\cczB7MeH.s 			page 10


 370:Generated_Source\PSoC5/StepperCount.c ****         return ((uint32)CY_GET_REG16(StepperCount_STATICCOUNT_LSB_PTR));
 371:Generated_Source\PSoC5/StepperCount.c ****     #else
 372:Generated_Source\PSoC5/StepperCount.c ****         return (CY_GET_REG32(StepperCount_STATICCOUNT_LSB_PTR));
 145              		.loc 1 372 0
 146 0004 024B     		ldr	r3, .L13+4
 147 0006 1868     		ldr	r0, [r3]
 373:Generated_Source\PSoC5/StepperCount.c ****     #endif /* (StepperCount_UsingFixedFunction) */
 374:Generated_Source\PSoC5/StepperCount.c **** }
 148              		.loc 1 374 0
 149 0008 7047     		bx	lr
 150              	.L14:
 151 000a 00BF     		.align	2
 152              	.L13:
 153 000c 0C640040 		.word	1073767436
 154 0010 4C640040 		.word	1073767500
 155              		.cfi_endproc
 156              	.LFE7:
 157              		.size	StepperCount_ReadCounter, .-StepperCount_ReadCounter
 158              		.section	.text.StepperCount_ReadCapture,"ax",%progbits
 159              		.align	2
 160              		.global	StepperCount_ReadCapture
 161              		.thumb
 162              		.thumb_func
 163              		.type	StepperCount_ReadCapture, %function
 164              	StepperCount_ReadCapture:
 165              	.LFB8:
 375:Generated_Source\PSoC5/StepperCount.c **** 
 376:Generated_Source\PSoC5/StepperCount.c **** 
 377:Generated_Source\PSoC5/StepperCount.c **** /*******************************************************************************
 378:Generated_Source\PSoC5/StepperCount.c **** * Function Name: StepperCount_ReadCapture
 379:Generated_Source\PSoC5/StepperCount.c **** ********************************************************************************
 380:Generated_Source\PSoC5/StepperCount.c **** * Summary:
 381:Generated_Source\PSoC5/StepperCount.c **** *   This function returns the last value captured.
 382:Generated_Source\PSoC5/StepperCount.c **** *
 383:Generated_Source\PSoC5/StepperCount.c **** * Parameters:  
 384:Generated_Source\PSoC5/StepperCount.c **** *  void
 385:Generated_Source\PSoC5/StepperCount.c **** *
 386:Generated_Source\PSoC5/StepperCount.c **** * Return: 
 387:Generated_Source\PSoC5/StepperCount.c **** *  (uint32) Present Capture value.
 388:Generated_Source\PSoC5/StepperCount.c **** *
 389:Generated_Source\PSoC5/StepperCount.c **** *******************************************************************************/
 390:Generated_Source\PSoC5/StepperCount.c **** uint32 StepperCount_ReadCapture(void) 
 391:Generated_Source\PSoC5/StepperCount.c **** {
 166              		.loc 1 391 0
 167              		.cfi_startproc
 168              		@ args = 0, pretend = 0, frame = 0
 169              		@ frame_needed = 0, uses_anonymous_args = 0
 170              		@ link register save eliminated.
 392:Generated_Source\PSoC5/StepperCount.c ****     #if(StepperCount_UsingFixedFunction)
 393:Generated_Source\PSoC5/StepperCount.c ****         return ((uint32)CY_GET_REG16(StepperCount_STATICCOUNT_LSB_PTR));
 394:Generated_Source\PSoC5/StepperCount.c ****     #else
 395:Generated_Source\PSoC5/StepperCount.c ****         return (CY_GET_REG32(StepperCount_STATICCOUNT_LSB_PTR));
 171              		.loc 1 395 0
 172 0000 014B     		ldr	r3, .L16
 173 0002 1868     		ldr	r0, [r3]
 396:Generated_Source\PSoC5/StepperCount.c ****     #endif /* (StepperCount_UsingFixedFunction) */
 397:Generated_Source\PSoC5/StepperCount.c **** }
ARM GAS  C:\Users\GEORGE~1\AppData\Local\Temp\cczB7MeH.s 			page 11


 174              		.loc 1 397 0
 175 0004 7047     		bx	lr
 176              	.L17:
 177 0006 00BF     		.align	2
 178              	.L16:
 179 0008 4C640040 		.word	1073767500
 180              		.cfi_endproc
 181              	.LFE8:
 182              		.size	StepperCount_ReadCapture, .-StepperCount_ReadCapture
 183              		.section	.text.StepperCount_WritePeriod,"ax",%progbits
 184              		.align	2
 185              		.global	StepperCount_WritePeriod
 186              		.thumb
 187              		.thumb_func
 188              		.type	StepperCount_WritePeriod, %function
 189              	StepperCount_WritePeriod:
 190              	.LFB9:
 398:Generated_Source\PSoC5/StepperCount.c **** 
 399:Generated_Source\PSoC5/StepperCount.c **** 
 400:Generated_Source\PSoC5/StepperCount.c **** /*******************************************************************************
 401:Generated_Source\PSoC5/StepperCount.c **** * Function Name: StepperCount_WritePeriod
 402:Generated_Source\PSoC5/StepperCount.c **** ********************************************************************************
 403:Generated_Source\PSoC5/StepperCount.c **** * Summary:
 404:Generated_Source\PSoC5/StepperCount.c **** * Changes the period of the counter.  The new period 
 405:Generated_Source\PSoC5/StepperCount.c **** * will be loaded the next time terminal count is detected.
 406:Generated_Source\PSoC5/StepperCount.c **** *
 407:Generated_Source\PSoC5/StepperCount.c **** * Parameters:  
 408:Generated_Source\PSoC5/StepperCount.c **** *  period: (uint32) A value of 0 will result in
 409:Generated_Source\PSoC5/StepperCount.c **** *         the counter remaining at zero.  
 410:Generated_Source\PSoC5/StepperCount.c **** *
 411:Generated_Source\PSoC5/StepperCount.c **** * Return: 
 412:Generated_Source\PSoC5/StepperCount.c **** *  void
 413:Generated_Source\PSoC5/StepperCount.c **** *
 414:Generated_Source\PSoC5/StepperCount.c **** *******************************************************************************/
 415:Generated_Source\PSoC5/StepperCount.c **** void StepperCount_WritePeriod(uint32 period) 
 416:Generated_Source\PSoC5/StepperCount.c **** {
 191              		.loc 1 416 0
 192              		.cfi_startproc
 193              		@ args = 0, pretend = 0, frame = 0
 194              		@ frame_needed = 0, uses_anonymous_args = 0
 195              		@ link register save eliminated.
 196              	.LVL2:
 417:Generated_Source\PSoC5/StepperCount.c ****     #if(StepperCount_UsingFixedFunction)
 418:Generated_Source\PSoC5/StepperCount.c ****         CY_SET_REG16(StepperCount_PERIOD_LSB_PTR,(uint16)period);
 419:Generated_Source\PSoC5/StepperCount.c ****     #else
 420:Generated_Source\PSoC5/StepperCount.c ****         CY_SET_REG32(StepperCount_PERIOD_LSB_PTR, period);
 197              		.loc 1 420 0
 198 0000 014B     		ldr	r3, .L19
 199 0002 1860     		str	r0, [r3]
 200 0004 7047     		bx	lr
 201              	.L20:
 202 0006 00BF     		.align	2
 203              	.L19:
 204 0008 2C640040 		.word	1073767468
 205              		.cfi_endproc
 206              	.LFE9:
 207              		.size	StepperCount_WritePeriod, .-StepperCount_WritePeriod
ARM GAS  C:\Users\GEORGE~1\AppData\Local\Temp\cczB7MeH.s 			page 12


 208              		.section	.text.StepperCount_ReadPeriod,"ax",%progbits
 209              		.align	2
 210              		.global	StepperCount_ReadPeriod
 211              		.thumb
 212              		.thumb_func
 213              		.type	StepperCount_ReadPeriod, %function
 214              	StepperCount_ReadPeriod:
 215              	.LFB10:
 421:Generated_Source\PSoC5/StepperCount.c ****     #endif /* (StepperCount_UsingFixedFunction) */
 422:Generated_Source\PSoC5/StepperCount.c **** }
 423:Generated_Source\PSoC5/StepperCount.c **** 
 424:Generated_Source\PSoC5/StepperCount.c **** 
 425:Generated_Source\PSoC5/StepperCount.c **** /*******************************************************************************
 426:Generated_Source\PSoC5/StepperCount.c **** * Function Name: StepperCount_ReadPeriod
 427:Generated_Source\PSoC5/StepperCount.c **** ********************************************************************************
 428:Generated_Source\PSoC5/StepperCount.c **** * Summary:
 429:Generated_Source\PSoC5/StepperCount.c **** * Reads the current period value without affecting counter operation.
 430:Generated_Source\PSoC5/StepperCount.c **** *
 431:Generated_Source\PSoC5/StepperCount.c **** * Parameters:  
 432:Generated_Source\PSoC5/StepperCount.c **** *  void:  
 433:Generated_Source\PSoC5/StepperCount.c **** *
 434:Generated_Source\PSoC5/StepperCount.c **** * Return: 
 435:Generated_Source\PSoC5/StepperCount.c **** *  (uint32) Present period value.
 436:Generated_Source\PSoC5/StepperCount.c **** *
 437:Generated_Source\PSoC5/StepperCount.c **** *******************************************************************************/
 438:Generated_Source\PSoC5/StepperCount.c **** uint32 StepperCount_ReadPeriod(void) 
 439:Generated_Source\PSoC5/StepperCount.c **** {
 216              		.loc 1 439 0
 217              		.cfi_startproc
 218              		@ args = 0, pretend = 0, frame = 0
 219              		@ frame_needed = 0, uses_anonymous_args = 0
 220              		@ link register save eliminated.
 440:Generated_Source\PSoC5/StepperCount.c ****     #if(StepperCount_UsingFixedFunction)
 441:Generated_Source\PSoC5/StepperCount.c ****         return ((uint32)CY_GET_REG16(StepperCount_PERIOD_LSB_PTR));
 442:Generated_Source\PSoC5/StepperCount.c ****     #else
 443:Generated_Source\PSoC5/StepperCount.c ****         return (CY_GET_REG32(StepperCount_PERIOD_LSB_PTR));
 221              		.loc 1 443 0
 222 0000 014B     		ldr	r3, .L22
 223 0002 1868     		ldr	r0, [r3]
 444:Generated_Source\PSoC5/StepperCount.c ****     #endif /* (StepperCount_UsingFixedFunction) */
 445:Generated_Source\PSoC5/StepperCount.c **** }
 224              		.loc 1 445 0
 225 0004 7047     		bx	lr
 226              	.L23:
 227 0006 00BF     		.align	2
 228              	.L22:
 229 0008 2C640040 		.word	1073767468
 230              		.cfi_endproc
 231              	.LFE10:
 232              		.size	StepperCount_ReadPeriod, .-StepperCount_ReadPeriod
 233              		.section	.text.StepperCount_WriteCompare,"ax",%progbits
 234              		.align	2
 235              		.global	StepperCount_WriteCompare
 236              		.thumb
 237              		.thumb_func
 238              		.type	StepperCount_WriteCompare, %function
 239              	StepperCount_WriteCompare:
ARM GAS  C:\Users\GEORGE~1\AppData\Local\Temp\cczB7MeH.s 			page 13


 240              	.LFB11:
 446:Generated_Source\PSoC5/StepperCount.c **** 
 447:Generated_Source\PSoC5/StepperCount.c **** 
 448:Generated_Source\PSoC5/StepperCount.c **** #if (!StepperCount_UsingFixedFunction)
 449:Generated_Source\PSoC5/StepperCount.c **** /*******************************************************************************
 450:Generated_Source\PSoC5/StepperCount.c **** * Function Name: StepperCount_WriteCompare
 451:Generated_Source\PSoC5/StepperCount.c **** ********************************************************************************
 452:Generated_Source\PSoC5/StepperCount.c **** * Summary:
 453:Generated_Source\PSoC5/StepperCount.c **** * Changes the compare value.  The compare output will 
 454:Generated_Source\PSoC5/StepperCount.c **** * reflect the new value on the next UDB clock.  The compare output will be 
 455:Generated_Source\PSoC5/StepperCount.c **** * driven high when the present counter value compares true based on the 
 456:Generated_Source\PSoC5/StepperCount.c **** * configured compare mode setting. 
 457:Generated_Source\PSoC5/StepperCount.c **** *
 458:Generated_Source\PSoC5/StepperCount.c **** * Parameters:  
 459:Generated_Source\PSoC5/StepperCount.c **** *  Compare:  New compare value. 
 460:Generated_Source\PSoC5/StepperCount.c **** *
 461:Generated_Source\PSoC5/StepperCount.c **** * Return: 
 462:Generated_Source\PSoC5/StepperCount.c **** *  void
 463:Generated_Source\PSoC5/StepperCount.c **** *
 464:Generated_Source\PSoC5/StepperCount.c **** *******************************************************************************/
 465:Generated_Source\PSoC5/StepperCount.c **** void StepperCount_WriteCompare(uint32 compare) \
 466:Generated_Source\PSoC5/StepperCount.c ****                                    
 467:Generated_Source\PSoC5/StepperCount.c **** {
 241              		.loc 1 467 0
 242              		.cfi_startproc
 243              		@ args = 0, pretend = 0, frame = 0
 244              		@ frame_needed = 0, uses_anonymous_args = 0
 245              		@ link register save eliminated.
 246              	.LVL3:
 468:Generated_Source\PSoC5/StepperCount.c ****     #if(StepperCount_UsingFixedFunction)
 469:Generated_Source\PSoC5/StepperCount.c ****         CY_SET_REG16(StepperCount_COMPARE_LSB_PTR, (uint16)compare);
 470:Generated_Source\PSoC5/StepperCount.c ****     #else
 471:Generated_Source\PSoC5/StepperCount.c ****         CY_SET_REG32(StepperCount_COMPARE_LSB_PTR, compare);
 247              		.loc 1 471 0
 248 0000 014B     		ldr	r3, .L25
 249 0002 1860     		str	r0, [r3]
 250 0004 7047     		bx	lr
 251              	.L26:
 252 0006 00BF     		.align	2
 253              	.L25:
 254 0008 3C640040 		.word	1073767484
 255              		.cfi_endproc
 256              	.LFE11:
 257              		.size	StepperCount_WriteCompare, .-StepperCount_WriteCompare
 258              		.section	.text.StepperCount_ReadCompare,"ax",%progbits
 259              		.align	2
 260              		.global	StepperCount_ReadCompare
 261              		.thumb
 262              		.thumb_func
 263              		.type	StepperCount_ReadCompare, %function
 264              	StepperCount_ReadCompare:
 265              	.LFB12:
 472:Generated_Source\PSoC5/StepperCount.c ****     #endif /* (StepperCount_UsingFixedFunction) */
 473:Generated_Source\PSoC5/StepperCount.c **** }
 474:Generated_Source\PSoC5/StepperCount.c **** 
 475:Generated_Source\PSoC5/StepperCount.c **** 
 476:Generated_Source\PSoC5/StepperCount.c **** /*******************************************************************************
ARM GAS  C:\Users\GEORGE~1\AppData\Local\Temp\cczB7MeH.s 			page 14


 477:Generated_Source\PSoC5/StepperCount.c **** * Function Name: StepperCount_ReadCompare
 478:Generated_Source\PSoC5/StepperCount.c **** ********************************************************************************
 479:Generated_Source\PSoC5/StepperCount.c **** * Summary:
 480:Generated_Source\PSoC5/StepperCount.c **** * Returns the compare value.
 481:Generated_Source\PSoC5/StepperCount.c **** *
 482:Generated_Source\PSoC5/StepperCount.c **** * Parameters:  
 483:Generated_Source\PSoC5/StepperCount.c **** *  void:
 484:Generated_Source\PSoC5/StepperCount.c **** *
 485:Generated_Source\PSoC5/StepperCount.c **** * Return: 
 486:Generated_Source\PSoC5/StepperCount.c **** *  (uint32) Present compare value.
 487:Generated_Source\PSoC5/StepperCount.c **** *
 488:Generated_Source\PSoC5/StepperCount.c **** *******************************************************************************/
 489:Generated_Source\PSoC5/StepperCount.c **** uint32 StepperCount_ReadCompare(void) 
 490:Generated_Source\PSoC5/StepperCount.c **** {
 266              		.loc 1 490 0
 267              		.cfi_startproc
 268              		@ args = 0, pretend = 0, frame = 0
 269              		@ frame_needed = 0, uses_anonymous_args = 0
 270              		@ link register save eliminated.
 491:Generated_Source\PSoC5/StepperCount.c ****     return (CY_GET_REG32(StepperCount_COMPARE_LSB_PTR));
 271              		.loc 1 491 0
 272 0000 014B     		ldr	r3, .L28
 273 0002 1868     		ldr	r0, [r3]
 492:Generated_Source\PSoC5/StepperCount.c **** }
 274              		.loc 1 492 0
 275 0004 7047     		bx	lr
 276              	.L29:
 277 0006 00BF     		.align	2
 278              	.L28:
 279 0008 3C640040 		.word	1073767484
 280              		.cfi_endproc
 281              	.LFE12:
 282              		.size	StepperCount_ReadCompare, .-StepperCount_ReadCompare
 283              		.section	.text.StepperCount_ClearFIFO,"ax",%progbits
 284              		.align	2
 285              		.global	StepperCount_ClearFIFO
 286              		.thumb
 287              		.thumb_func
 288              		.type	StepperCount_ClearFIFO, %function
 289              	StepperCount_ClearFIFO:
 290              	.LFB13:
 493:Generated_Source\PSoC5/StepperCount.c **** 
 494:Generated_Source\PSoC5/StepperCount.c **** 
 495:Generated_Source\PSoC5/StepperCount.c **** #if (StepperCount_COMPARE_MODE_SOFTWARE)
 496:Generated_Source\PSoC5/StepperCount.c **** /*******************************************************************************
 497:Generated_Source\PSoC5/StepperCount.c **** * Function Name: StepperCount_SetCompareMode
 498:Generated_Source\PSoC5/StepperCount.c **** ********************************************************************************
 499:Generated_Source\PSoC5/StepperCount.c **** * Summary:
 500:Generated_Source\PSoC5/StepperCount.c **** *  Sets the software controlled Compare Mode.
 501:Generated_Source\PSoC5/StepperCount.c **** *
 502:Generated_Source\PSoC5/StepperCount.c **** * Parameters:
 503:Generated_Source\PSoC5/StepperCount.c **** *  compareMode:  Compare Mode Enumerated Type.
 504:Generated_Source\PSoC5/StepperCount.c **** *
 505:Generated_Source\PSoC5/StepperCount.c **** * Return:
 506:Generated_Source\PSoC5/StepperCount.c **** *  void
 507:Generated_Source\PSoC5/StepperCount.c **** *
 508:Generated_Source\PSoC5/StepperCount.c **** *******************************************************************************/
ARM GAS  C:\Users\GEORGE~1\AppData\Local\Temp\cczB7MeH.s 			page 15


 509:Generated_Source\PSoC5/StepperCount.c **** void StepperCount_SetCompareMode(uint8 compareMode) 
 510:Generated_Source\PSoC5/StepperCount.c **** {
 511:Generated_Source\PSoC5/StepperCount.c ****     /* Clear the compare mode bits in the control register */
 512:Generated_Source\PSoC5/StepperCount.c ****     StepperCount_CONTROL &= ((uint8)(~StepperCount_CTRL_CMPMODE_MASK));
 513:Generated_Source\PSoC5/StepperCount.c ****     
 514:Generated_Source\PSoC5/StepperCount.c ****     /* Write the new setting */
 515:Generated_Source\PSoC5/StepperCount.c ****     StepperCount_CONTROL |= compareMode;
 516:Generated_Source\PSoC5/StepperCount.c **** }
 517:Generated_Source\PSoC5/StepperCount.c **** #endif  /* (StepperCount_COMPARE_MODE_SOFTWARE) */
 518:Generated_Source\PSoC5/StepperCount.c **** 
 519:Generated_Source\PSoC5/StepperCount.c **** 
 520:Generated_Source\PSoC5/StepperCount.c **** #if (StepperCount_CAPTURE_MODE_SOFTWARE)
 521:Generated_Source\PSoC5/StepperCount.c **** /*******************************************************************************
 522:Generated_Source\PSoC5/StepperCount.c **** * Function Name: StepperCount_SetCaptureMode
 523:Generated_Source\PSoC5/StepperCount.c **** ********************************************************************************
 524:Generated_Source\PSoC5/StepperCount.c **** * Summary:
 525:Generated_Source\PSoC5/StepperCount.c **** *  Sets the software controlled Capture Mode.
 526:Generated_Source\PSoC5/StepperCount.c **** *
 527:Generated_Source\PSoC5/StepperCount.c **** * Parameters:
 528:Generated_Source\PSoC5/StepperCount.c **** *  captureMode:  Capture Mode Enumerated Type.
 529:Generated_Source\PSoC5/StepperCount.c **** *
 530:Generated_Source\PSoC5/StepperCount.c **** * Return:
 531:Generated_Source\PSoC5/StepperCount.c **** *  void
 532:Generated_Source\PSoC5/StepperCount.c **** *
 533:Generated_Source\PSoC5/StepperCount.c **** *******************************************************************************/
 534:Generated_Source\PSoC5/StepperCount.c **** void StepperCount_SetCaptureMode(uint8 captureMode) 
 535:Generated_Source\PSoC5/StepperCount.c **** {
 536:Generated_Source\PSoC5/StepperCount.c ****     /* Clear the capture mode bits in the control register */
 537:Generated_Source\PSoC5/StepperCount.c ****     StepperCount_CONTROL &= ((uint8)(~StepperCount_CTRL_CAPMODE_MASK));
 538:Generated_Source\PSoC5/StepperCount.c ****     
 539:Generated_Source\PSoC5/StepperCount.c ****     /* Write the new setting */
 540:Generated_Source\PSoC5/StepperCount.c ****     StepperCount_CONTROL |= ((uint8)((uint8)captureMode << StepperCount_CTRL_CAPMODE0_SHIFT));
 541:Generated_Source\PSoC5/StepperCount.c **** }
 542:Generated_Source\PSoC5/StepperCount.c **** #endif  /* (StepperCount_CAPTURE_MODE_SOFTWARE) */
 543:Generated_Source\PSoC5/StepperCount.c **** 
 544:Generated_Source\PSoC5/StepperCount.c **** 
 545:Generated_Source\PSoC5/StepperCount.c **** /*******************************************************************************
 546:Generated_Source\PSoC5/StepperCount.c **** * Function Name: StepperCount_ClearFIFO
 547:Generated_Source\PSoC5/StepperCount.c **** ********************************************************************************
 548:Generated_Source\PSoC5/StepperCount.c **** * Summary:
 549:Generated_Source\PSoC5/StepperCount.c **** *   This function clears all capture data from the capture FIFO
 550:Generated_Source\PSoC5/StepperCount.c **** *
 551:Generated_Source\PSoC5/StepperCount.c **** * Parameters:  
 552:Generated_Source\PSoC5/StepperCount.c **** *  void:
 553:Generated_Source\PSoC5/StepperCount.c **** *
 554:Generated_Source\PSoC5/StepperCount.c **** * Return: 
 555:Generated_Source\PSoC5/StepperCount.c **** *  None
 556:Generated_Source\PSoC5/StepperCount.c **** *
 557:Generated_Source\PSoC5/StepperCount.c **** *******************************************************************************/
 558:Generated_Source\PSoC5/StepperCount.c **** void StepperCount_ClearFIFO(void) 
 559:Generated_Source\PSoC5/StepperCount.c **** {
 291              		.loc 1 559 0
 292              		.cfi_startproc
 293              		@ args = 0, pretend = 0, frame = 0
 294              		@ frame_needed = 0, uses_anonymous_args = 0
 295 0000 08B5     		push	{r3, lr}
 296              		.cfi_def_cfa_offset 8
ARM GAS  C:\Users\GEORGE~1\AppData\Local\Temp\cczB7MeH.s 			page 16


 297              		.cfi_offset 3, -8
 298              		.cfi_offset 14, -4
 560:Generated_Source\PSoC5/StepperCount.c **** 
 561:Generated_Source\PSoC5/StepperCount.c ****     while(0u != (StepperCount_ReadStatusRegister() & StepperCount_STATUS_FIFONEMP))
 299              		.loc 1 561 0
 300 0002 01E0     		b	.L31
 301              	.L32:
 562:Generated_Source\PSoC5/StepperCount.c ****     {
 563:Generated_Source\PSoC5/StepperCount.c ****         (void)StepperCount_ReadCapture();
 302              		.loc 1 563 0
 303 0004 FFF7FEFF 		bl	StepperCount_ReadCapture
 304              	.LVL4:
 305              	.L31:
 561:Generated_Source\PSoC5/StepperCount.c ****     {
 306              		.loc 1 561 0
 307 0008 FFF7FEFF 		bl	StepperCount_ReadStatusRegister
 308              	.LVL5:
 309 000c 10F0400F 		tst	r0, #64
 310 0010 F8D1     		bne	.L32
 564:Generated_Source\PSoC5/StepperCount.c ****     }
 565:Generated_Source\PSoC5/StepperCount.c **** 
 566:Generated_Source\PSoC5/StepperCount.c **** }
 311              		.loc 1 566 0
 312 0012 08BD     		pop	{r3, pc}
 313              		.cfi_endproc
 314              	.LFE13:
 315              		.size	StepperCount_ClearFIFO, .-StepperCount_ClearFIFO
 316              		.section	.text.StepperCount_Init,"ax",%progbits
 317              		.align	2
 318              		.global	StepperCount_Init
 319              		.thumb
 320              		.thumb_func
 321              		.type	StepperCount_Init, %function
 322              	StepperCount_Init:
 323              	.LFB0:
  38:Generated_Source\PSoC5/StepperCount.c ****         #if (!StepperCount_UsingFixedFunction && !StepperCount_ControlRegRemoved)
 324              		.loc 1 38 0
 325              		.cfi_startproc
 326              		@ args = 0, pretend = 0, frame = 0
 327              		@ frame_needed = 0, uses_anonymous_args = 0
 328 0000 08B5     		push	{r3, lr}
 329              		.cfi_def_cfa_offset 8
 330              		.cfi_offset 3, -8
 331              		.cfi_offset 14, -4
  96:Generated_Source\PSoC5/StepperCount.c ****         #endif /* (!StepperCount_UsingFixedFunction) */
 332              		.loc 1 96 0
 333 0002 FFF7FEFF 		bl	StepperCount_ClearFIFO
 334              	.LVL6:
 100:Generated_Source\PSoC5/StepperCount.c ****         #if (!(StepperCount_UsingFixedFunction && (CY_PSOC5A)))
 335              		.loc 1 100 0
 336 0006 6FF00100 		mvn	r0, #1
 337 000a FFF7FEFF 		bl	StepperCount_WritePeriod
 338              	.LVL7:
 102:Generated_Source\PSoC5/StepperCount.c ****         #endif /* (!(StepperCount_UsingFixedFunction && (CY_PSOC5A))) */
 339              		.loc 1 102 0
 340 000e 0020     		movs	r0, #0
 341 0010 FFF7FEFF 		bl	StepperCount_WriteCounter
ARM GAS  C:\Users\GEORGE~1\AppData\Local\Temp\cczB7MeH.s 			page 17


 342              	.LVL8:
 104:Generated_Source\PSoC5/StepperCount.c ****         
 343              		.loc 1 104 0
 344 0014 0120     		movs	r0, #1
 345 0016 FFF7FEFF 		bl	StepperCount_SetInterruptMode
 346              	.LVL9:
 108:Generated_Source\PSoC5/StepperCount.c ****             /* Set the compare value (only available to non-fixed function implementation */
 347              		.loc 1 108 0
 348 001a FFF7FEFF 		bl	StepperCount_ReadStatusRegister
 349              	.LVL10:
 110:Generated_Source\PSoC5/StepperCount.c ****             /* Use the interrupt output of the status register for IRQ output */
 350              		.loc 1 110 0
 351 001e 8020     		movs	r0, #128
 352 0020 FFF7FEFF 		bl	StepperCount_WriteCompare
 353              	.LVL11:
 115:Generated_Source\PSoC5/StepperCount.c ****             
 354              		.loc 1 115 0
 355 0024 FFF7FEFF 		bl	CyEnterCriticalSection
 356              	.LVL12:
 117:Generated_Source\PSoC5/StepperCount.c ****             
 357              		.loc 1 117 0
 358 0028 034A     		ldr	r2, .L36
 359 002a 1378     		ldrb	r3, [r2]	@ zero_extendqisi2
 360 002c 43F01003 		orr	r3, r3, #16
 361 0030 1370     		strb	r3, [r2]
 120:Generated_Source\PSoC5/StepperCount.c ****             
 362              		.loc 1 120 0
 363 0032 FFF7FEFF 		bl	CyExitCriticalSection
 364              	.LVL13:
 365 0036 08BD     		pop	{r3, pc}
 366              	.L37:
 367              		.align	2
 368              	.L36:
 369 0038 9F640040 		.word	1073767583
 370              		.cfi_endproc
 371              	.LFE0:
 372              		.size	StepperCount_Init, .-StepperCount_Init
 373              		.section	.text.StepperCount_Start,"ax",%progbits
 374              		.align	2
 375              		.global	StepperCount_Start
 376              		.thumb
 377              		.thumb_func
 378              		.type	StepperCount_Start, %function
 379              	StepperCount_Start:
 380              	.LFB2:
 179:Generated_Source\PSoC5/StepperCount.c ****     if(StepperCount_initVar == 0u)
 381              		.loc 1 179 0
 382              		.cfi_startproc
 383              		@ args = 0, pretend = 0, frame = 0
 384              		@ frame_needed = 0, uses_anonymous_args = 0
 385 0000 08B5     		push	{r3, lr}
 386              		.cfi_def_cfa_offset 8
 387              		.cfi_offset 3, -8
 388              		.cfi_offset 14, -4
 180:Generated_Source\PSoC5/StepperCount.c ****     {
 389              		.loc 1 180 0
 390 0002 044B     		ldr	r3, .L41
ARM GAS  C:\Users\GEORGE~1\AppData\Local\Temp\cczB7MeH.s 			page 18


 391 0004 1B78     		ldrb	r3, [r3]	@ zero_extendqisi2
 392 0006 23B9     		cbnz	r3, .L38
 182:Generated_Source\PSoC5/StepperCount.c ****         
 393              		.loc 1 182 0
 394 0008 FFF7FEFF 		bl	StepperCount_Init
 395              	.LVL14:
 184:Generated_Source\PSoC5/StepperCount.c ****     }
 396              		.loc 1 184 0
 397 000c 0122     		movs	r2, #1
 398 000e 014B     		ldr	r3, .L41
 399 0010 1A70     		strb	r2, [r3]
 400              	.L38:
 401 0012 08BD     		pop	{r3, pc}
 402              	.L42:
 403              		.align	2
 404              	.L41:
 405 0014 00000000 		.word	.LANCHOR0
 406              		.cfi_endproc
 407              	.LFE2:
 408              		.size	StepperCount_Start, .-StepperCount_Start
 409              		.global	StepperCount_initVar
 410              		.bss
 411              		.set	.LANCHOR0,. + 0
 412              		.type	StepperCount_initVar, %object
 413              		.size	StepperCount_initVar, 1
 414              	StepperCount_initVar:
 415 0000 00       		.space	1
 416              		.text
 417              	.Letext0:
 418              		.file 2 "Generated_Source\\PSoC5\\cytypes.h"
 419              		.file 3 "Generated_Source\\PSoC5\\CyLib.h"