ARM GAS  C:\Users\shawn\AppData\Local\Temp\ccyYznHv.s 			page 1


   1              		.syntax unified
   2              		.cpu cortex-m3
   3              		.fpu softvfp
   4              		.eabi_attribute 20, 1
   5              		.eabi_attribute 21, 1
   6              		.eabi_attribute 23, 3
   7              		.eabi_attribute 24, 1
   8              		.eabi_attribute 25, 1
   9              		.eabi_attribute 26, 1
  10              		.eabi_attribute 30, 6
  11              		.eabi_attribute 34, 1
  12              		.eabi_attribute 18, 4
  13              		.thumb
  14              		.syntax unified
  15              		.file	"main.c"
  16              		.text
  17              	.Ltext0:
  18              		.cfi_sections	.debug_frame
  19              		.global	Time
  20              		.bss
  21              		.align	2
  22              		.type	Time, %object
  23              		.size	Time, 4
  24              	Time:
  25 0000 00000000 		.space	4
  26              		.comm	TimeStart,4,4
  27              		.global	LedState
  28              		.type	LedState, %object
  29              		.size	LedState, 1
  30              	LedState:
  31 0004 00       		.space	1
  32              		.section	.text.TimerInterrupt,"ax",%progbits
  33              		.align	2
  34              		.global	TimerInterrupt
  35              		.thumb
  36              		.thumb_func
  37              		.type	TimerInterrupt, %function
  38              	TimerInterrupt:
  39              	.LFB64:
  40              		.file 1 "main.c"
   1:main.c        **** /******************************************************************************
   2:main.c        **** * File Name: main.c
   3:main.c        **** *
   4:main.c        **** * Version: 1.10
   5:main.c        **** *
   6:main.c        **** * Description: This is the source code for the ADC and UART code example.
   7:main.c        **** *
   8:main.c        **** * Related Document: CE195277_ADC_and_UART.pdf
   9:main.c        **** *
  10:main.c        **** * Hardware Dependency: See CE195277_ADC_and_UART.pdf
  11:main.c        **** *
  12:main.c        **** *******************************************************************************
  13:main.c        **** * Copyright (2018), Cypress Semiconductor Corporation. All rights reserved.
  14:main.c        **** *******************************************************************************
  15:main.c        **** * This software, including source code, documentation and related materials
  16:main.c        **** * (“Software”), is owned by Cypress Semiconductor Corporation or one of its
  17:main.c        **** * subsidiaries (“Cypress”) and is protected by and subject to worldwide patent
ARM GAS  C:\Users\shawn\AppData\Local\Temp\ccyYznHv.s 			page 2


  18:main.c        **** * protection (United States and foreign), United States copyright laws and
  19:main.c        **** * international treaty provisions. Therefore, you may use this Software only
  20:main.c        **** * as provided in the license agreement accompanying the software package from
  21:main.c        **** * which you obtained this Software (“EULA”).
  22:main.c        **** *
  23:main.c        **** * If no EULA applies, Cypress hereby grants you a personal, nonexclusive,
  24:main.c        **** * non-transferable license to copy, modify, and compile the Software source
  25:main.c        **** * code solely for use in connection with Cypress’s integrated circuit products.
  26:main.c        **** * Any reproduction, modification, translation, compilation, or representation
  27:main.c        **** * of this Software except as specified above is prohibited without the express
  28:main.c        **** * written permission of Cypress.
  29:main.c        **** *
  30:main.c        **** * Disclaimer: THIS SOFTWARE IS PROVIDED AS-IS, WITH NO WARRANTY OF ANY KIND, 
  31:main.c        **** * EXPRESS OR IMPLIED, INCLUDING, BUT NOT LIMITED TO, NONINFRINGEMENT, IMPLIED 
  32:main.c        **** * WARRANTIES OF MERCHANTABILITY AND FITNESS FOR A PARTICULAR PURPOSE. Cypress 
  33:main.c        **** * reserves the right to make changes to the Software without notice. Cypress 
  34:main.c        **** * does not assume any liability arising out of the application or use of the 
  35:main.c        **** * Software or any product or circuit described in the Software. Cypress does 
  36:main.c        **** * not authorize its products for use in any products where a malfunction or 
  37:main.c        **** * failure of the Cypress product may reasonably be expected to result in 
  38:main.c        **** * significant property damage, injury or death (“High Risk Product”). By 
  39:main.c        **** * including Cypress’s product in a High Risk Product, the manufacturer of such 
  40:main.c        **** * system or application assumes all risk of such use and in doing so agrees to 
  41:main.c        **** * indemnify Cypress against all liability.
  42:main.c        **** *******************************************************************************/
  43:main.c        **** 
  44:main.c        **** #include <project.h>
  45:main.c        **** #include "stdio.h"
  46:main.c        **** 
  47:main.c        **** /* Project Defines */
  48:main.c        **** #define FALSE  0
  49:main.c        **** #define TRUE   1
  50:main.c        **** #define TRANSMIT_BUFFER_SIZE  64
  51:main.c        **** 
  52:main.c        **** 
  53:main.c        **** /*******************************************************************************
  54:main.c        **** * Function Name: main
  55:main.c        **** ********************************************************************************
  56:main.c        **** *
  57:main.c        **** * Summary:
  58:main.c        **** *  main() performs following functions:
  59:main.c        **** ...
  60:main.c        **** *
  61:main.c        **** * Parameters:
  62:main.c        **** *  None.
  63:main.c        **** *
  64:main.c        **** * Return:
  65:main.c        **** *  None.
  66:main.c        **** *
  67:main.c        **** *******************************************************************************/
  68:main.c        **** uint32 Time = 0; //ms
  69:main.c        **** uint TimeStart;
  70:main.c        **** uint8 LedState = 0;
  71:main.c        **** 
  72:main.c        **** // Interrupts 
  73:main.c        **** CY_ISR(TimerInterrupt)
  74:main.c        **** {
ARM GAS  C:\Users\shawn\AppData\Local\Temp\ccyYznHv.s 			page 3


  41              		.loc 1 74 0
  42              		.cfi_startproc
  43              		@ args = 0, pretend = 0, frame = 0
  44              		@ frame_needed = 1, uses_anonymous_args = 0
  45 0000 80B5     		push	{r7, lr}
  46              		.cfi_def_cfa_offset 8
  47              		.cfi_offset 7, -8
  48              		.cfi_offset 14, -4
  49 0002 00AF     		add	r7, sp, #0
  50              		.cfi_def_cfa_register 7
  75:main.c        ****     // Timer interrupt runs at 1000Hz
  76:main.c        ****     ++Time;
  51              		.loc 1 76 0
  52 0004 044B     		ldr	r3, .L2
  53 0006 1B68     		ldr	r3, [r3]
  54 0008 0133     		adds	r3, r3, #1
  55 000a 034A     		ldr	r2, .L2
  56 000c 1360     		str	r3, [r2]
  77:main.c        ****     Timer_1_ReadStatusRegister();
  57              		.loc 1 77 0
  58 000e FFF7FEFF 		bl	Timer_1_ReadStatusRegister
  78:main.c        **** }
  59              		.loc 1 78 0
  60 0012 00BF     		nop
  61 0014 80BD     		pop	{r7, pc}
  62              	.L3:
  63 0016 00BF     		.align	2
  64              	.L2:
  65 0018 00000000 		.word	Time
  66              		.cfi_endproc
  67              	.LFE64:
  68              		.size	TimerInterrupt, .-TimerInterrupt
  69              		.section	.rodata
  70              		.align	2
  71              	.LC0:
  72 0000 256C752C 		.ascii	"%lu,%lu,%lu\012\000"
  72      256C752C 
  72      256C750A 
  72      00
  73              		.section	.text.main,"ax",%progbits
  74              		.align	2
  75              		.global	main
  76              		.thumb
  77              		.thumb_func
  78              		.type	main, %function
  79              	main:
  80              	.LFB65:
  79:main.c        **** 
  80:main.c        **** int main()
  81:main.c        **** {
  81              		.loc 1 81 0
  82              		.cfi_startproc
  83              		@ args = 0, pretend = 0, frame = 144
  84              		@ frame_needed = 1, uses_anonymous_args = 0
  85 0000 80B5     		push	{r7, lr}
  86              		.cfi_def_cfa_offset 8
  87              		.cfi_offset 7, -8
ARM GAS  C:\Users\shawn\AppData\Local\Temp\ccyYznHv.s 			page 4


  88              		.cfi_offset 14, -4
  89 0002 A6B0     		sub	sp, sp, #152
  90              		.cfi_def_cfa_offset 160
  91 0004 02AF     		add	r7, sp, #8
  92              		.cfi_def_cfa 7, 152
  82:main.c        ****     uint8 i;
  83:main.c        ****     uint8 j;
  84:main.c        ****     
  85:main.c        ****     Timer_1_Start();
  93              		.loc 1 85 0
  94 0006 FFF7FEFF 		bl	Timer_1_Start
  86:main.c        ****     TimerInterrupt_Start();
  95              		.loc 1 86 0
  96 000a FFF7FEFF 		bl	TimerInterrupt_Start
  87:main.c        ****     TimerInterrupt_StartEx(TimerInterrupt);
  97              		.loc 1 87 0
  98 000e 2E48     		ldr	r0, .L16
  99 0010 FFF7FEFF 		bl	TimerInterrupt_StartEx
  88:main.c        ****     TimerInterrupt_Enable();
 100              		.loc 1 88 0
 101 0014 FFF7FEFF 		bl	TimerInterrupt_Enable
  89:main.c        ****     
  90:main.c        ****     // Enable global interrupts
  91:main.c        ****     CyGlobalIntEnable;
 102              		.loc 1 91 0
 103              		.syntax unified
 104              	@ 91 "main.c" 1
 105 0018 62B6     		CPSIE   i
 106              	@ 0 "" 2
  92:main.c        **** 
  93:main.c        ****     // Variable to store UART received character 
  94:main.c        ****     uint8 Ch;
  95:main.c        ****     
  96:main.c        ****     // Transmit buffer 
  97:main.c        ****     char TransmitBuffer[TRANSMIT_BUFFER_SIZE];
  98:main.c        ****     
  99:main.c        ****     // Measurement buffer
 100:main.c        ****     char MeasBuffer[64];
 101:main.c        ****     
 102:main.c        ****     // Start UART
 103:main.c        ****     UART_1_Start();
 107              		.loc 1 103 0
 108              		.thumb
 109              		.syntax unified
 110 001a FFF7FEFF 		bl	UART_1_Start
 104:main.c        ****     
 105:main.c        ****     // Initialize flags
 106:main.c        ****     uint8 ActiveFlag = FALSE;
 111              		.loc 1 106 0
 112 001e 0023     		movs	r3, #0
 113 0020 87F88F30 		strb	r3, [r7, #143]
 107:main.c        ****     uint8 InputFlag = FALSE;
 114              		.loc 1 107 0
 115 0024 0023     		movs	r3, #0
 116 0026 87F88E30 		strb	r3, [r7, #142]
 108:main.c        ****     uint8 MeasFlag = FALSE;
 117              		.loc 1 108 0
ARM GAS  C:\Users\shawn\AppData\Local\Temp\ccyYznHv.s 			page 5


 118 002a 0023     		movs	r3, #0
 119 002c 87F88D30 		strb	r3, [r7, #141]
 120              	.L13:
 109:main.c        **** 
 110:main.c        ****     for(;;)
 111:main.c        ****     {
 112:main.c        ****         /* Non-blocking call to get the latest data recieved  */
 113:main.c        ****         Ch = UART_1_GetChar();
 121              		.loc 1 113 0
 122 0030 FFF7FEFF 		bl	UART_1_GetChar
 123 0034 0346     		mov	r3, r0
 124 0036 87F88C30 		strb	r3, [r7, #140]
 114:main.c        ****         
 115:main.c        ****         /* Set flags based on UART command */
 116:main.c        ****         switch(Ch)
 125              		.loc 1 116 0
 126 003a 97F88C30 		ldrb	r3, [r7, #140]	@ zero_extendqisi2
 127 003e 6D2B     		cmp	r3, #109
 128 0040 13D0     		beq	.L6
 129 0042 6D2B     		cmp	r3, #109
 130 0044 02DC     		bgt	.L7
 131 0046 002B     		cmp	r3, #0
 132 0048 13D0     		beq	.L15
 117:main.c        ****         {
 118:main.c        ****             case 0:
 119:main.c        ****                 // No new data was recieved 
 120:main.c        ****                 break;
 121:main.c        ****             case 's':
 122:main.c        ****                 // Start timing for computation alongside Python
 123:main.c        ****                 TimeStart = Time;
 124:main.c        ****                 ActiveFlag = TRUE;
 125:main.c        ****             case 'u':
 126:main.c        ****                 // Input requested
 127:main.c        ****                 InputFlag = TRUE;
 128:main.c        ****             case 'm':
 129:main.c        ****                 // Incoming measurement data
 130:main.c        ****                 MeasFlag = TRUE;
 131:main.c        ****             default:
 132:main.c        ****                 // Place error handling code here //
 133:main.c        ****                 break;    
 133              		.loc 1 133 0
 134 004a 13E0     		b	.L11
 135              	.L7:
 116:main.c        ****         {
 136              		.loc 1 116 0
 137 004c 732B     		cmp	r3, #115
 138 004e 02D0     		beq	.L9
 139 0050 752B     		cmp	r3, #117
 140 0052 07D0     		beq	.L10
 141              		.loc 1 133 0
 142 0054 0EE0     		b	.L11
 143              	.L9:
 123:main.c        ****                 ActiveFlag = TRUE;
 144              		.loc 1 123 0
 145 0056 1D4B     		ldr	r3, .L16+4
 146 0058 1B68     		ldr	r3, [r3]
 147 005a 1D4A     		ldr	r2, .L16+8
ARM GAS  C:\Users\shawn\AppData\Local\Temp\ccyYznHv.s 			page 6


 148 005c 1360     		str	r3, [r2]
 124:main.c        ****             case 'u':
 149              		.loc 1 124 0
 150 005e 0123     		movs	r3, #1
 151 0060 87F88F30 		strb	r3, [r7, #143]
 152              	.L10:
 127:main.c        ****             case 'm':
 153              		.loc 1 127 0
 154 0064 0123     		movs	r3, #1
 155 0066 87F88E30 		strb	r3, [r7, #142]
 156              	.L6:
 130:main.c        ****             default:
 157              		.loc 1 130 0
 158 006a 0123     		movs	r3, #1
 159 006c 87F88D30 		strb	r3, [r7, #141]
 160              		.loc 1 133 0
 161 0070 00E0     		b	.L11
 162              	.L15:
 120:main.c        ****             case 's':
 163              		.loc 1 120 0
 164 0072 00BF     		nop
 165              	.L11:
 134:main.c        ****         }
 135:main.c        ****         
 136:main.c        ****         if(InputFlag && ActiveFlag)
 166              		.loc 1 136 0
 167 0074 97F88E30 		ldrb	r3, [r7, #142]	@ zero_extendqisi2
 168 0078 002B     		cmp	r3, #0
 169 007a D9D0     		beq	.L13
 170              		.loc 1 136 0 is_stmt 0 discriminator 1
 171 007c 97F88F30 		ldrb	r3, [r7, #143]	@ zero_extendqisi2
 172 0080 002B     		cmp	r3, #0
 173 0082 D5D0     		beq	.L13
 174              	.LBB2:
 137:main.c        ****         {
 138:main.c        ****             uint32 Input1 = UART_1_GetRxBufferSize();
 175              		.loc 1 138 0 is_stmt 1
 176 0084 FFF7FEFF 		bl	UART_1_GetRxBufferSize
 177 0088 0346     		mov	r3, r0
 178 008a C7F88830 		str	r3, [r7, #136]
 139:main.c        ****             uint32 Input2 = UART_1_GetRxBufferSize();
 179              		.loc 1 139 0
 180 008e FFF7FEFF 		bl	UART_1_GetRxBufferSize
 181 0092 0346     		mov	r3, r0
 182 0094 C7F88430 		str	r3, [r7, #132]
 140:main.c        ****             sprintf(TransmitBuffer, "%lu,%lu,%lu\n", Time-TimeStart, Input1, Input2);
 183              		.loc 1 140 0
 184 0098 0C4B     		ldr	r3, .L16+4
 185 009a 1A68     		ldr	r2, [r3]
 186 009c 0C4B     		ldr	r3, .L16+8
 187 009e 1B68     		ldr	r3, [r3]
 188 00a0 D21A     		subs	r2, r2, r3
 189 00a2 07F14400 		add	r0, r7, #68
 190 00a6 D7F88430 		ldr	r3, [r7, #132]
 191 00aa 0093     		str	r3, [sp]
 192 00ac D7F88830 		ldr	r3, [r7, #136]
 193 00b0 0849     		ldr	r1, .L16+12
ARM GAS  C:\Users\shawn\AppData\Local\Temp\ccyYznHv.s 			page 7


 194 00b2 FFF7FEFF 		bl	sprintf
 141:main.c        ****             UART_1_PutString(TransmitBuffer);
 195              		.loc 1 141 0
 196 00b6 07F14403 		add	r3, r7, #68
 197 00ba 1846     		mov	r0, r3
 198 00bc FFF7FEFF 		bl	UART_1_PutString
 142:main.c        ****             InputFlag = FALSE;
 199              		.loc 1 142 0
 200 00c0 0023     		movs	r3, #0
 201 00c2 87F88E30 		strb	r3, [r7, #142]
 202              	.LBE2:
 143:main.c        ****         }
 144:main.c        ****         
 145:main.c        ****         
 146:main.c        ****         if (MeasFlag && ActiveFlag)
 147:main.c        ****         {
 148:main.c        **** 
 149:main.c        ****         }
 150:main.c        ****     }
 203              		.loc 1 150 0
 204 00c6 B3E7     		b	.L13
 205              	.L17:
 206              		.align	2
 207              	.L16:
 208 00c8 00000000 		.word	TimerInterrupt
 209 00cc 00000000 		.word	Time
 210 00d0 00000000 		.word	TimeStart
 211 00d4 00000000 		.word	.LC0
 212              		.cfi_endproc
 213              	.LFE65:
 214              		.size	main, .-main
 215              		.text
 216              	.Letext0:
 217              		.file 2 "c:\\program files (x86)\\cypress\\psoc creator\\4.2\\psoc creator\\import\\gnu\\arm\\5.4.
 218              		.file 3 "c:\\program files (x86)\\cypress\\psoc creator\\4.2\\psoc creator\\import\\gnu\\arm\\5.4.
 219              		.file 4 "Generated_Source\\PSoC5/cytypes.h"
 220              		.file 5 "c:\\program files (x86)\\cypress\\psoc creator\\4.2\\psoc creator\\import\\gnu\\arm\\5.4.
 221              		.file 6 "Generated_Source\\PSoC5/core_cm3.h"