ARM GAS  C:\Users\GEORGE~1\AppData\Local\Temp\ccZQmAjd.s 			page 1


   1              		.syntax unified
   2              		.cpu cortex-m3
   3              		.fpu softvfp
   4              		.eabi_attribute 20, 1
   5              		.eabi_attribute 21, 1
   6              		.eabi_attribute 23, 3
   7              		.eabi_attribute 24, 1
   8              		.eabi_attribute 25, 1
   9              		.eabi_attribute 26, 1
  10              		.eabi_attribute 30, 1
  11              		.eabi_attribute 34, 1
  12              		.eabi_attribute 18, 4
  13              		.thumb
  14              		.syntax unified
  15              		.file	"main.c"
  16              		.text
  17              	.Ltext0:
  18              		.cfi_sections	.debug_frame
  19              		.section	.text.ByteReceived,"ax",%progbits
  20              		.align	2
  21              		.global	ByteReceived
  22              		.thumb
  23              		.thumb_func
  24              		.type	ByteReceived, %function
  25              	ByteReceived:
  26              	.LFB63:
  27              		.file 1 "main.c"
   1:main.c        **** /* ========================================
   2:main.c        ****  *
   3:main.c        ****  * Copyright YOUR COMPANY, THE YEAR
   4:main.c        ****  * All Rights Reserved
   5:main.c        ****  * UNPUBLISHED, LICENSED SOFTWARE.
   6:main.c        ****  *
   7:main.c        ****  * CONFIDENTIAL AND PROPRIETARY INFORMATION
   8:main.c        ****  * WHICH IS THE PROPERTY OF your company.
   9:main.c        ****  *
  10:main.c        ****  * ========================================
  11:main.c        **** */
  12:main.c        **** #include "project.h"
  13:main.c        **** 
  14:main.c        **** uint8 ByteCount = 0;
  15:main.c        **** uint8 firstbyte = 0;
  16:main.c        **** uint8 CommandReady = 0;
  17:main.c        **** uint8 Count = 0;
  18:main.c        **** uint8 Status;
  19:main.c        **** 
  20:main.c        **** uint8 StepperMotorDone = 1;
  21:main.c        **** 
  22:main.c        **** uint8 ReceivedBuffer[66];
  23:main.c        **** uint8 TransmitBuffer[66];
  24:main.c        **** 
  25:main.c        **** struct command_protocol
  26:main.c        **** {
  27:main.c        ****     uint8 packet_size;
  28:main.c        ****     uint8 command;
  29:main.c        ****     uint8 buffer[64];
  30:main.c        **** } Command_Packet;
ARM GAS  C:\Users\GEORGE~1\AppData\Local\Temp\ccZQmAjd.s 			page 2


  31:main.c        **** 
  32:main.c        **** struct command_protocol Transmit_Packet;
  33:main.c        **** 
  34:main.c        **** CY_ISR(ByteReceived)
  35:main.c        **** { 
  28              		.loc 1 35 0
  29              		.cfi_startproc
  30              		@ args = 0, pretend = 0, frame = 0
  31              		@ frame_needed = 0, uses_anonymous_args = 0
  32 0000 38B5     		push	{r3, r4, r5, lr}
  33              		.cfi_def_cfa_offset 16
  34              		.cfi_offset 3, -16
  35              		.cfi_offset 4, -12
  36              		.cfi_offset 5, -8
  37              		.cfi_offset 14, -4
  36:main.c        ****     LEDDrive_Write(1);
  38              		.loc 1 36 0
  39 0002 0120     		movs	r0, #1
  40 0004 FFF7FEFF 		bl	LEDDrive_Write
  41              	.LVL0:
  37:main.c        ****     ReceivedBuffer[ByteCount++] = (uint8) (LabVIEW_UART_GetByte()&0x00ff);
  42              		.loc 1 37 0
  43 0008 0D4C     		ldr	r4, .L4
  44 000a 2578     		ldrb	r5, [r4]	@ zero_extendqisi2
  45 000c 6B1C     		adds	r3, r5, #1
  46 000e 2370     		strb	r3, [r4]
  47 0010 FFF7FEFF 		bl	LabVIEW_UART_GetByte
  48              	.LVL1:
  49 0014 0B4B     		ldr	r3, .L4+4
  50 0016 5855     		strb	r0, [r3, r5]
  38:main.c        ****     if(firstbyte == 0)
  51              		.loc 1 38 0
  52 0018 6378     		ldrb	r3, [r4, #1]	@ zero_extendqisi2
  53 001a 2BB9     		cbnz	r3, .L2
  39:main.c        ****     {
  40:main.c        ****         ByteCounter_WriteCompare(ReceivedBuffer[0]);
  54              		.loc 1 40 0
  55 001c 094B     		ldr	r3, .L4+4
  56 001e 1878     		ldrb	r0, [r3]	@ zero_extendqisi2
  57 0020 FFF7FEFF 		bl	ByteCounter_WriteCompare
  58              	.LVL2:
  41:main.c        ****         firstbyte = 1;
  59              		.loc 1 41 0
  60 0024 0122     		movs	r2, #1
  61 0026 6270     		strb	r2, [r4, #1]
  62              	.L2:
  42:main.c        ****    
  43:main.c        ****     }
  44:main.c        ****     Count = ByteCounter_ReadCounter();
  63              		.loc 1 44 0
  64 0028 FFF7FEFF 		bl	ByteCounter_ReadCounter
  65              	.LVL3:
  66 002c 044B     		ldr	r3, .L4
  67 002e 9870     		strb	r0, [r3, #2]
  45:main.c        ****     Status = ByteCounter_ReadStatusRegister();
  68              		.loc 1 45 0
  69 0030 FFF7FEFF 		bl	ByteCounter_ReadStatusRegister
ARM GAS  C:\Users\GEORGE~1\AppData\Local\Temp\ccZQmAjd.s 			page 3


  70              	.LVL4:
  71 0034 044B     		ldr	r3, .L4+8
  72 0036 1870     		strb	r0, [r3]
  46:main.c        ****     LEDDrive_Write(0);
  73              		.loc 1 46 0
  74 0038 0020     		movs	r0, #0
  75 003a FFF7FEFF 		bl	LEDDrive_Write
  76              	.LVL5:
  77 003e 38BD     		pop	{r3, r4, r5, pc}
  78              	.L5:
  79              		.align	2
  80              	.L4:
  81 0040 00000000 		.word	.LANCHOR0
  82 0044 00000000 		.word	ReceivedBuffer
  83 0048 00000000 		.word	Status
  84              		.cfi_endproc
  85              	.LFE63:
  86              		.size	ByteReceived, .-ByteReceived
  87              		.section	.text.CommandReceived,"ax",%progbits
  88              		.align	2
  89              		.global	CommandReceived
  90              		.thumb
  91              		.thumb_func
  92              		.type	CommandReceived, %function
  93              	CommandReceived:
  94              	.LFB64:
  47:main.c        ****     
  48:main.c        **** }
  49:main.c        **** 
  50:main.c        **** CY_ISR(CommandReceived)
  51:main.c        **** {
  95              		.loc 1 51 0
  96              		.cfi_startproc
  97              		@ args = 0, pretend = 0, frame = 0
  98              		@ frame_needed = 0, uses_anonymous_args = 0
  99 0000 08B5     		push	{r3, lr}
 100              		.cfi_def_cfa_offset 8
 101              		.cfi_offset 3, -8
 102              		.cfi_offset 14, -4
  52:main.c        ****     uint8 i;
  53:main.c        ****     
  54:main.c        ****     if(CommandReady == 0)
 103              		.loc 1 54 0
 104 0002 114B     		ldr	r3, .L11
 105 0004 DB78     		ldrb	r3, [r3, #3]	@ zero_extendqisi2
 106 0006 C3B9     		cbnz	r3, .L7
  55:main.c        ****     {
  56:main.c        ****         Command_Packet.packet_size = ReceivedBuffer[0];
 107              		.loc 1 56 0
 108 0008 104A     		ldr	r2, .L11+4
 109 000a 1078     		ldrb	r0, [r2]	@ zero_extendqisi2
 110 000c 104B     		ldr	r3, .L11+8
 111 000e 1870     		strb	r0, [r3]
  57:main.c        ****         Command_Packet.command = ReceivedBuffer[1];
 112              		.loc 1 57 0
 113 0010 5278     		ldrb	r2, [r2, #1]	@ zero_extendqisi2
 114 0012 5A70     		strb	r2, [r3, #1]
ARM GAS  C:\Users\GEORGE~1\AppData\Local\Temp\ccZQmAjd.s 			page 4


 115              	.LVL6:
  58:main.c        ****     
  59:main.c        ****         for(i=0;i<(Command_Packet.packet_size - 2);i++)
 116              		.loc 1 59 0
 117 0014 0023     		movs	r3, #0
 118 0016 07E0     		b	.L8
 119              	.LVL7:
 120              	.L9:
  60:main.c        ****         {
  61:main.c        ****             Command_Packet.buffer[i] =  ReceivedBuffer[i+2];
 121              		.loc 1 61 0 discriminator 3
 122 0018 9A1C     		adds	r2, r3, #2
 123 001a 0C49     		ldr	r1, .L11+4
 124 001c 895C     		ldrb	r1, [r1, r2]	@ zero_extendqisi2
 125 001e 0C4A     		ldr	r2, .L11+8
 126 0020 1A44     		add	r2, r2, r3
 127 0022 9170     		strb	r1, [r2, #2]
  59:main.c        ****         {
 128              		.loc 1 59 0 discriminator 3
 129 0024 0133     		adds	r3, r3, #1
 130              	.LVL8:
 131 0026 DBB2     		uxtb	r3, r3
 132              	.LVL9:
 133              	.L8:
  59:main.c        ****         {
 134              		.loc 1 59 0 is_stmt 0 discriminator 1
 135 0028 821E     		subs	r2, r0, #2
 136 002a 9342     		cmp	r3, r2
 137 002c F4DB     		blt	.L9
  62:main.c        ****         }
  63:main.c        ****     
  64:main.c        ****         firstbyte = 0;
 138              		.loc 1 64 0 is_stmt 1
 139 002e 064B     		ldr	r3, .L11
 140              	.LVL10:
 141 0030 0022     		movs	r2, #0
 142 0032 5A70     		strb	r2, [r3, #1]
  65:main.c        ****         CommandReady = 1;
 143              		.loc 1 65 0
 144 0034 0121     		movs	r1, #1
 145 0036 D970     		strb	r1, [r3, #3]
  66:main.c        ****         ByteCount = 0;
 146              		.loc 1 66 0
 147 0038 1A70     		strb	r2, [r3]
 148              	.L7:
  67:main.c        ****     }
  68:main.c        ****     ByteCounter_ReadStatusRegister();
 149              		.loc 1 68 0
 150 003a FFF7FEFF 		bl	ByteCounter_ReadStatusRegister
 151              	.LVL11:
  69:main.c        ****     LEDDrive_Write(0);
 152              		.loc 1 69 0
 153 003e 0020     		movs	r0, #0
 154 0040 FFF7FEFF 		bl	LEDDrive_Write
 155              	.LVL12:
 156 0044 08BD     		pop	{r3, pc}
 157              	.L12:
ARM GAS  C:\Users\GEORGE~1\AppData\Local\Temp\ccZQmAjd.s 			page 5


 158 0046 00BF     		.align	2
 159              	.L11:
 160 0048 00000000 		.word	.LANCHOR0
 161 004c 00000000 		.word	ReceivedBuffer
 162 0050 00000000 		.word	Command_Packet
 163              		.cfi_endproc
 164              	.LFE64:
 165              		.size	CommandReceived, .-CommandReceived
 166              		.section	.text.StepperInterrupt,"ax",%progbits
 167              		.align	2
 168              		.global	StepperInterrupt
 169              		.thumb
 170              		.thumb_func
 171              		.type	StepperInterrupt, %function
 172              	StepperInterrupt:
 173              	.LFB65:
  70:main.c        **** }
  71:main.c        **** 
  72:main.c        **** CY_ISR(StepperInterrupt)
  73:main.c        **** {
 174              		.loc 1 73 0
 175              		.cfi_startproc
 176              		@ args = 0, pretend = 0, frame = 0
 177              		@ frame_needed = 0, uses_anonymous_args = 0
 178 0000 08B5     		push	{r3, lr}
 179              		.cfi_def_cfa_offset 8
 180              		.cfi_offset 3, -8
 181              		.cfi_offset 14, -4
  74:main.c        ****     StepperStart_Write(0);
 182              		.loc 1 74 0
 183 0002 0020     		movs	r0, #0
 184 0004 FFF7FEFF 		bl	StepperStart_Write
 185              	.LVL13:
  75:main.c        ****     StepperMotorDone = 1;
 186              		.loc 1 75 0
 187 0008 0122     		movs	r2, #1
 188 000a 024B     		ldr	r3, .L15
 189 000c 1A70     		strb	r2, [r3]
  76:main.c        ****     StepperCount_ReadStatusRegister();
 190              		.loc 1 76 0
 191 000e FFF7FEFF 		bl	StepperCount_ReadStatusRegister
 192              	.LVL14:
 193 0012 08BD     		pop	{r3, pc}
 194              	.L16:
 195              		.align	2
 196              	.L15:
 197 0014 00000000 		.word	.LANCHOR1
 198              		.cfi_endproc
 199              	.LFE65:
 200              		.size	StepperInterrupt, .-StepperInterrupt
 201              		.section	.text.main,"ax",%progbits
 202              		.align	2
 203              		.global	main
 204              		.thumb
 205              		.thumb_func
 206              		.type	main, %function
 207              	main:
ARM GAS  C:\Users\GEORGE~1\AppData\Local\Temp\ccZQmAjd.s 			page 6


 208              	.LFB66:
  77:main.c        **** }
  78:main.c        **** 
  79:main.c        **** 
  80:main.c        **** int main(void)
  81:main.c        **** {
 209              		.loc 1 81 0
 210              		.cfi_startproc
 211              		@ args = 0, pretend = 0, frame = 0
 212              		@ frame_needed = 0, uses_anonymous_args = 0
 213 0000 10B5     		push	{r4, lr}
 214              		.cfi_def_cfa_offset 8
 215              		.cfi_offset 4, -8
 216              		.cfi_offset 14, -4
  82:main.c        ****     uint8 i;
  83:main.c        ****     
  84:main.c        ****     StepperStart_Write(0);
 217              		.loc 1 84 0
 218 0002 0020     		movs	r0, #0
 219 0004 FFF7FEFF 		bl	StepperStart_Write
 220              	.LVL15:
  85:main.c        ****     
  86:main.c        ****     UARTReset_Write(0);
 221              		.loc 1 86 0
 222 0008 0020     		movs	r0, #0
 223 000a FFF7FEFF 		bl	UARTReset_Write
 224              	.LVL16:
  87:main.c        ****     StepCountReset_Write(0);
 225              		.loc 1 87 0
 226 000e 0020     		movs	r0, #0
 227 0010 FFF7FEFF 		bl	StepCountReset_Write
 228              	.LVL17:
  88:main.c        ****     ByteCountReset_Write(0);
 229              		.loc 1 88 0
 230 0014 0020     		movs	r0, #0
 231 0016 FFF7FEFF 		bl	ByteCountReset_Write
 232              	.LVL18:
  89:main.c        ****     
  90:main.c        ****     LabVIEW_UART_Start();
 233              		.loc 1 90 0
 234 001a FFF7FEFF 		bl	LabVIEW_UART_Start
 235              	.LVL19:
  91:main.c        ****     StepperStep_Start();
 236              		.loc 1 91 0
 237 001e FFF7FEFF 		bl	StepperStep_Start
 238              	.LVL20:
  92:main.c        ****     
  93:main.c        ****     StepperStep_WritePeriod((uint32)4294967296);
 239              		.loc 1 93 0
 240 0022 0020     		movs	r0, #0
 241 0024 FFF7FEFF 		bl	StepperStep_WritePeriod
 242              	.LVL21:
  94:main.c        ****     
  95:main.c        ****     
  96:main.c        ****     
  97:main.c        ****     ByteCounter_Start();
 243              		.loc 1 97 0
ARM GAS  C:\Users\GEORGE~1\AppData\Local\Temp\ccZQmAjd.s 			page 7


 244 0028 FFF7FEFF 		bl	ByteCounter_Start
 245              	.LVL22:
  98:main.c        ****     ByteCounter_Enable();
 246              		.loc 1 98 0
 247 002c FFF7FEFF 		bl	ByteCounter_Enable
 248              	.LVL23:
  99:main.c        ****     ByteCounter_SetInterruptMode(ByteCounter_STATUS_CMP_INT_EN_MASK);
 249              		.loc 1 99 0
 250 0030 0120     		movs	r0, #1
 251 0032 FFF7FEFF 		bl	ByteCounter_SetInterruptMode
 252              	.LVL24:
 100:main.c        ****     
 101:main.c        ****     StepperCount_Start();
 253              		.loc 1 101 0
 254 0036 FFF7FEFF 		bl	StepperCount_Start
 255              	.LVL25:
 102:main.c        ****     StepperCount_Enable();
 256              		.loc 1 102 0
 257 003a FFF7FEFF 		bl	StepperCount_Enable
 258              	.LVL26:
 103:main.c        ****     StepperCount_SetInterruptMode(ByteCounter_STATUS_CMP_INT_EN_MASK);
 259              		.loc 1 103 0
 260 003e 0120     		movs	r0, #1
 261 0040 FFF7FEFF 		bl	StepperCount_SetInterruptMode
 262              	.LVL27:
 104:main.c        ****        
 105:main.c        ****     ByteReceived_Start();
 263              		.loc 1 105 0
 264 0044 FFF7FEFF 		bl	ByteReceived_Start
 265              	.LVL28:
 106:main.c        ****     ByteReceived_StartEx(ByteReceived);
 266              		.loc 1 106 0
 267 0048 5148     		ldr	r0, .L35
 268 004a FFF7FEFF 		bl	ByteReceived_StartEx
 269              	.LVL29:
 107:main.c        ****     ByteReceived_Enable();
 270              		.loc 1 107 0
 271 004e FFF7FEFF 		bl	ByteReceived_Enable
 272              	.LVL30:
 108:main.c        ****     
 109:main.c        ****     CommandReceived_Start();
 273              		.loc 1 109 0
 274 0052 FFF7FEFF 		bl	CommandReceived_Start
 275              	.LVL31:
 110:main.c        ****     CommandReceived_StartEx(CommandReceived);
 276              		.loc 1 110 0
 277 0056 4F48     		ldr	r0, .L35+4
 278 0058 FFF7FEFF 		bl	CommandReceived_StartEx
 279              	.LVL32:
 111:main.c        ****     CommandReceived_Enable();
 280              		.loc 1 111 0
 281 005c FFF7FEFF 		bl	CommandReceived_Enable
 282              	.LVL33:
 112:main.c        ****     
 113:main.c        ****     StepperInterrupt_Start();
 283              		.loc 1 113 0
 284 0060 FFF7FEFF 		bl	StepperInterrupt_Start
ARM GAS  C:\Users\GEORGE~1\AppData\Local\Temp\ccZQmAjd.s 			page 8


 285              	.LVL34:
 114:main.c        ****     StepperInterrupt_StartEx(StepperInterrupt);
 286              		.loc 1 114 0
 287 0064 4C48     		ldr	r0, .L35+8
 288 0066 FFF7FEFF 		bl	StepperInterrupt_StartEx
 289              	.LVL35:
 115:main.c        ****     StepperInterrupt_Enable();
 290              		.loc 1 115 0
 291 006a FFF7FEFF 		bl	StepperInterrupt_Enable
 292              	.LVL36:
 116:main.c        ****        
 117:main.c        ****     
 118:main.c        ****     CyGlobalIntEnable; /* Enable global interrupts. */
 293              		.loc 1 118 0
 294              		.syntax unified
 295              	@ 118 "main.c" 1
 296 006e 62B6     		CPSIE   i
 297              	@ 0 "" 2
 298              		.thumb
 299              		.syntax unified
 300              	.L18:
 119:main.c        **** 
 120:main.c        ****     /* Place your initialization/startup code here (e.g. MyInst_Start()) */
 121:main.c        **** 
 122:main.c        ****     //LabVIEW_UART_PutString("PSOC Started\r\n");
 123:main.c        ****     
 124:main.c        ****     for(;;)
 125:main.c        ****     {
 126:main.c        ****         /* Place your application code here. */
 127:main.c        ****         
 128:main.c        ****         if(CommandReady)
 301              		.loc 1 128 0
 302 0070 4A4B     		ldr	r3, .L35+12
 303 0072 DB78     		ldrb	r3, [r3, #3]	@ zero_extendqisi2
 304 0074 002B     		cmp	r3, #0
 305 0076 FBD0     		beq	.L18
 129:main.c        ****         {
 130:main.c        ****             Transmit_Packet.command = Command_Packet.command;
 306              		.loc 1 130 0
 307 0078 494A     		ldr	r2, .L35+16
 308 007a 5378     		ldrb	r3, [r2, #1]	@ zero_extendqisi2
 309 007c 4948     		ldr	r0, .L35+20
 310 007e 4370     		strb	r3, [r0, #1]
 131:main.c        ****             TransmitBuffer[1] = Transmit_Packet.command;
 311              		.loc 1 131 0
 312 0080 4949     		ldr	r1, .L35+24
 313 0082 4B70     		strb	r3, [r1, #1]
 132:main.c        ****             Transmit_Packet.packet_size = Command_Packet.packet_size;
 314              		.loc 1 132 0
 315 0084 1278     		ldrb	r2, [r2]	@ zero_extendqisi2
 316 0086 0270     		strb	r2, [r0]
 133:main.c        ****             TransmitBuffer[0] = Transmit_Packet.packet_size;
 317              		.loc 1 133 0
 318 0088 0A70     		strb	r2, [r1]
 134:main.c        **** 
 135:main.c        ****             switch(Command_Packet.command)
 319              		.loc 1 135 0
ARM GAS  C:\Users\GEORGE~1\AppData\Local\Temp\ccZQmAjd.s 			page 9


 320 008a 032B     		cmp	r3, #3
 321 008c 79D8     		bhi	.L19
 322 008e DFE803F0 		tbb	[pc, r3]
 323              	.L21:
 324 0092 0E       		.byte	(.L30-.L21)/2
 325 0093 26       		.byte	(.L31-.L21)/2
 326 0094 3E       		.byte	(.L32-.L21)/2
 327 0095 5F       		.byte	(.L33-.L21)/2
 328              	.LVL37:
 329              		.p2align 1
 330              	.L25:
 136:main.c        ****             {
 137:main.c        ****                 case 0: //Motor Kill
 138:main.c        ****                     for(i=0;i<(Transmit_Packet.packet_size-2);i++)
 139:main.c        ****                     {
 140:main.c        ****                             Transmit_Packet.buffer[i] = Command_Packet.buffer[i];
 331              		.loc 1 140 0 discriminator 3
 332 0096 4249     		ldr	r1, .L35+16
 333 0098 1944     		add	r1, r1, r3
 334 009a 8878     		ldrb	r0, [r1, #2]	@ zero_extendqisi2
 335 009c 4149     		ldr	r1, .L35+20
 336 009e 1944     		add	r1, r1, r3
 337 00a0 8870     		strb	r0, [r1, #2]
 141:main.c        ****                             TransmitBuffer[i+2] = Transmit_Packet.buffer[i];
 338              		.loc 1 141 0 discriminator 3
 339 00a2 991C     		adds	r1, r3, #2
 340 00a4 404C     		ldr	r4, .L35+24
 341 00a6 6054     		strb	r0, [r4, r1]
 138:main.c        ****                     {
 342              		.loc 1 138 0 discriminator 3
 343 00a8 0133     		adds	r3, r3, #1
 344              	.LVL38:
 345 00aa DBB2     		uxtb	r3, r3
 346              	.LVL39:
 347 00ac 00E0     		b	.L20
 348              	.LVL40:
 349              	.L30:
 135:main.c        ****             {
 350              		.loc 1 135 0
 351 00ae 0023     		movs	r3, #0
 352              	.L20:
 353              	.LVL41:
 138:main.c        ****                     {
 354              		.loc 1 138 0 discriminator 1
 355 00b0 911E     		subs	r1, r2, #2
 356 00b2 8B42     		cmp	r3, r1
 357 00b4 EFDB     		blt	.L25
 142:main.c        ****                     }
 143:main.c        ****                     CommandReady = 0;
 358              		.loc 1 143 0
 359 00b6 0022     		movs	r2, #0
 360 00b8 384B     		ldr	r3, .L35+12
 361              	.LVL42:
 362 00ba DA70     		strb	r2, [r3, #3]
 144:main.c        ****                     
 145:main.c        ****                     StepperStart_Write(Command_Packet.buffer[0]);
 363              		.loc 1 145 0
ARM GAS  C:\Users\GEORGE~1\AppData\Local\Temp\ccZQmAjd.s 			page 10


 364 00bc 384B     		ldr	r3, .L35+16
 365 00be 9878     		ldrb	r0, [r3, #2]	@ zero_extendqisi2
 366 00c0 FFF7FEFF 		bl	StepperStart_Write
 367              	.LVL43:
 146:main.c        ****                     
 147:main.c        ****                 break;
 368              		.loc 1 147 0
 369 00c4 5DE0     		b	.L19
 370              	.LVL44:
 371              	.L26:
 148:main.c        ****                 case 1: //Set Motor Direction
 149:main.c        ****                     for(i=0;i<(Transmit_Packet.packet_size-2);i++)
 150:main.c        ****                     {
 151:main.c        ****                             Transmit_Packet.buffer[i] = Command_Packet.buffer[i];
 372              		.loc 1 151 0 discriminator 3
 373 00c6 3649     		ldr	r1, .L35+16
 374 00c8 1944     		add	r1, r1, r3
 375 00ca 8878     		ldrb	r0, [r1, #2]	@ zero_extendqisi2
 376 00cc 3549     		ldr	r1, .L35+20
 377 00ce 1944     		add	r1, r1, r3
 378 00d0 8870     		strb	r0, [r1, #2]
 152:main.c        ****                             TransmitBuffer[i+2] = Transmit_Packet.buffer[i];
 379              		.loc 1 152 0 discriminator 3
 380 00d2 991C     		adds	r1, r3, #2
 381 00d4 344C     		ldr	r4, .L35+24
 382 00d6 6054     		strb	r0, [r4, r1]
 149:main.c        ****                     {
 383              		.loc 1 149 0 discriminator 3
 384 00d8 0133     		adds	r3, r3, #1
 385              	.LVL45:
 386 00da DBB2     		uxtb	r3, r3
 387              	.LVL46:
 388 00dc 00E0     		b	.L22
 389              	.LVL47:
 390              	.L31:
 135:main.c        ****             {
 391              		.loc 1 135 0
 392 00de 0023     		movs	r3, #0
 393              	.L22:
 394              	.LVL48:
 149:main.c        ****                     {
 395              		.loc 1 149 0 discriminator 1
 396 00e0 911E     		subs	r1, r2, #2
 397 00e2 8B42     		cmp	r3, r1
 398 00e4 EFDB     		blt	.L26
 153:main.c        ****                     }
 154:main.c        ****                     CommandReady = 0;
 399              		.loc 1 154 0
 400 00e6 0022     		movs	r2, #0
 401 00e8 2C4B     		ldr	r3, .L35+12
 402              	.LVL49:
 403 00ea DA70     		strb	r2, [r3, #3]
 155:main.c        ****                     
 156:main.c        ****                     StepperDirection_Write(Command_Packet.buffer[0]);
 404              		.loc 1 156 0
 405 00ec 2C4B     		ldr	r3, .L35+16
 406 00ee 9878     		ldrb	r0, [r3, #2]	@ zero_extendqisi2
ARM GAS  C:\Users\GEORGE~1\AppData\Local\Temp\ccZQmAjd.s 			page 11


 407 00f0 FFF7FEFF 		bl	StepperDirection_Write
 408              	.LVL50:
 157:main.c        ****                     
 158:main.c        ****                 break;
 409              		.loc 1 158 0
 410 00f4 45E0     		b	.L19
 411              	.LVL51:
 412              	.L27:
 159:main.c        ****                 case 2: //Set Stepper Motor Speed
 160:main.c        ****                     for(i=0;i<(Transmit_Packet.packet_size-2);i++)
 161:main.c        ****                     {
 162:main.c        ****                             Transmit_Packet.buffer[i] = Command_Packet.buffer[i];
 413              		.loc 1 162 0 discriminator 3
 414 00f6 2A49     		ldr	r1, .L35+16
 415 00f8 1944     		add	r1, r1, r3
 416 00fa 8878     		ldrb	r0, [r1, #2]	@ zero_extendqisi2
 417 00fc 2949     		ldr	r1, .L35+20
 418 00fe 1944     		add	r1, r1, r3
 419 0100 8870     		strb	r0, [r1, #2]
 163:main.c        ****                             TransmitBuffer[i+2] = Transmit_Packet.buffer[i];
 420              		.loc 1 163 0 discriminator 3
 421 0102 991C     		adds	r1, r3, #2
 422 0104 284C     		ldr	r4, .L35+24
 423 0106 6054     		strb	r0, [r4, r1]
 160:main.c        ****                     {
 424              		.loc 1 160 0 discriminator 3
 425 0108 0133     		adds	r3, r3, #1
 426              	.LVL52:
 427 010a DBB2     		uxtb	r3, r3
 428              	.LVL53:
 429 010c 00E0     		b	.L23
 430              	.LVL54:
 431              	.L32:
 135:main.c        ****             {
 432              		.loc 1 135 0
 433 010e 0023     		movs	r3, #0
 434              	.L23:
 435              	.LVL55:
 160:main.c        ****                     {
 436              		.loc 1 160 0 discriminator 1
 437 0110 911E     		subs	r1, r2, #2
 438 0112 8B42     		cmp	r3, r1
 439 0114 EFDB     		blt	.L27
 164:main.c        ****                     }
 165:main.c        ****                     CommandReady = 0;
 440              		.loc 1 165 0
 441 0116 0022     		movs	r2, #0
 442 0118 204B     		ldr	r3, .L35+12
 443              	.LVL56:
 444 011a DA70     		strb	r2, [r3, #3]
 166:main.c        ****                     
 167:main.c        ****                     StepperStep_WritePeriod((int32)((Command_Packet.buffer[3])<<24)|((Command_Packe
 445              		.loc 1 167 0
 446 011c 2049     		ldr	r1, .L35+16
 447 011e 4879     		ldrb	r0, [r1, #5]	@ zero_extendqisi2
 448 0120 0B79     		ldrb	r3, [r1, #4]	@ zero_extendqisi2
 449 0122 CA78     		ldrb	r2, [r1, #3]	@ zero_extendqisi2
ARM GAS  C:\Users\GEORGE~1\AppData\Local\Temp\ccZQmAjd.s 			page 12


 450 0124 1202     		lsls	r2, r2, #8
 451 0126 42EA0343 		orr	r3, r2, r3, lsl #16
 452 012a 43EA0063 		orr	r3, r3, r0, lsl #24
 453 012e 8878     		ldrb	r0, [r1, #2]	@ zero_extendqisi2
 454 0130 1843     		orrs	r0, r0, r3
 455 0132 FFF7FEFF 		bl	StepperStep_WritePeriod
 456              	.LVL57:
 168:main.c        ****                     
 169:main.c        ****                 break;
 457              		.loc 1 169 0
 458 0136 24E0     		b	.L19
 459              	.LVL58:
 460              	.L28:
 170:main.c        ****                 case 3: //Set Stepper Motor Steps
 171:main.c        ****                     for(i=0;i<(Transmit_Packet.packet_size-2);i++)
 172:main.c        ****                     {
 173:main.c        ****                             Transmit_Packet.buffer[i] = Command_Packet.buffer[i];
 461              		.loc 1 173 0 discriminator 3
 462 0138 1949     		ldr	r1, .L35+16
 463 013a 1944     		add	r1, r1, r3
 464 013c 8878     		ldrb	r0, [r1, #2]	@ zero_extendqisi2
 465 013e 1949     		ldr	r1, .L35+20
 466 0140 1944     		add	r1, r1, r3
 467 0142 8870     		strb	r0, [r1, #2]
 174:main.c        ****                             TransmitBuffer[i+2] = Transmit_Packet.buffer[i];
 468              		.loc 1 174 0 discriminator 3
 469 0144 991C     		adds	r1, r3, #2
 470 0146 184C     		ldr	r4, .L35+24
 471 0148 6054     		strb	r0, [r4, r1]
 171:main.c        ****                     {
 472              		.loc 1 171 0 discriminator 3
 473 014a 0133     		adds	r3, r3, #1
 474              	.LVL59:
 475 014c DBB2     		uxtb	r3, r3
 476              	.LVL60:
 477 014e 00E0     		b	.L24
 478              	.LVL61:
 479              	.L33:
 135:main.c        ****             {
 480              		.loc 1 135 0
 481 0150 0023     		movs	r3, #0
 482              	.L24:
 483              	.LVL62:
 171:main.c        ****                     {
 484              		.loc 1 171 0 discriminator 1
 485 0152 911E     		subs	r1, r2, #2
 486 0154 8B42     		cmp	r3, r1
 487 0156 EFDB     		blt	.L28
 175:main.c        ****                     }
 176:main.c        ****                     CommandReady = 0;
 488              		.loc 1 176 0
 489 0158 0024     		movs	r4, #0
 490 015a 104B     		ldr	r3, .L35+12
 491              	.LVL63:
 492 015c DC70     		strb	r4, [r3, #3]
 177:main.c        ****                     
 178:main.c        ****                     StepperCount_WriteCompare((int32)((Command_Packet.buffer[3])<<24)|((Command_Pac
ARM GAS  C:\Users\GEORGE~1\AppData\Local\Temp\ccZQmAjd.s 			page 13


 493              		.loc 1 178 0
 494 015e 1049     		ldr	r1, .L35+16
 495 0160 4879     		ldrb	r0, [r1, #5]	@ zero_extendqisi2
 496 0162 0B79     		ldrb	r3, [r1, #4]	@ zero_extendqisi2
 497 0164 CA78     		ldrb	r2, [r1, #3]	@ zero_extendqisi2
 498 0166 1202     		lsls	r2, r2, #8
 499 0168 42EA0343 		orr	r3, r2, r3, lsl #16
 500 016c 43EA0063 		orr	r3, r3, r0, lsl #24
 501 0170 8878     		ldrb	r0, [r1, #2]	@ zero_extendqisi2
 502 0172 1843     		orrs	r0, r0, r3
 503 0174 FFF7FEFF 		bl	StepperCount_WriteCompare
 504              	.LVL64:
 179:main.c        ****                     StepperStart_Write(1);
 505              		.loc 1 179 0
 506 0178 0120     		movs	r0, #1
 507 017a FFF7FEFF 		bl	StepperStart_Write
 508              	.LVL65:
 180:main.c        ****                     StepperMotorDone = 0;
 509              		.loc 1 180 0
 510 017e 0B4B     		ldr	r3, .L35+28
 511 0180 1C70     		strb	r4, [r3]
 512              	.L19:
 181:main.c        ****                 break;
 182:main.c        ****                 default:
 183:main.c        ****                 break;
 184:main.c        ****             }
 185:main.c        ****             LabVIEW_UART_PutArray(TransmitBuffer,Transmit_Packet.packet_size);
 513              		.loc 1 185 0
 514 0182 084B     		ldr	r3, .L35+20
 515 0184 1978     		ldrb	r1, [r3]	@ zero_extendqisi2
 516 0186 0848     		ldr	r0, .L35+24
 517 0188 FFF7FEFF 		bl	LabVIEW_UART_PutArray
 518              	.LVL66:
 519 018c 70E7     		b	.L18
 520              	.L36:
 521 018e 00BF     		.align	2
 522              	.L35:
 523 0190 00000000 		.word	ByteReceived
 524 0194 00000000 		.word	CommandReceived
 525 0198 00000000 		.word	StepperInterrupt
 526 019c 00000000 		.word	.LANCHOR0
 527 01a0 00000000 		.word	Command_Packet
 528 01a4 00000000 		.word	Transmit_Packet
 529 01a8 00000000 		.word	TransmitBuffer
 530 01ac 00000000 		.word	.LANCHOR1
 531              		.cfi_endproc
 532              	.LFE66:
 533              		.size	main, .-main
 534              		.comm	Transmit_Packet,66,4
 535              		.comm	Command_Packet,66,4
 536              		.comm	TransmitBuffer,66,4
 537              		.comm	ReceivedBuffer,66,4
 538              		.global	StepperMotorDone
 539              		.comm	Status,1,1
 540              		.global	Count
 541              		.global	CommandReady
 542              		.global	firstbyte
ARM GAS  C:\Users\GEORGE~1\AppData\Local\Temp\ccZQmAjd.s 			page 14


 543              		.global	ByteCount
 544              		.data
 545              		.set	.LANCHOR1,. + 0
 546              		.type	StepperMotorDone, %object
 547              		.size	StepperMotorDone, 1
 548              	StepperMotorDone:
 549 0000 01       		.byte	1
 550              		.bss
 551              		.set	.LANCHOR0,. + 0
 552              		.type	ByteCount, %object
 553              		.size	ByteCount, 1
 554              	ByteCount:
 555 0000 00       		.space	1
 556              		.type	firstbyte, %object
 557              		.size	firstbyte, 1
 558              	firstbyte:
 559 0001 00       		.space	1
 560              		.type	Count, %object
 561              		.size	Count, 1
 562              	Count:
 563 0002 00       		.space	1
 564              		.type	CommandReady, %object
 565              		.size	CommandReady, 1
 566              	CommandReady:
 567 0003 00       		.space	1
 568              		.text
 569              	.Letext0:
 570              		.file 2 "c:\\program files (x86)\\cypress\\psoc creator\\4.2\\psoc creator\\import\\gnu\\arm\\5.4.
 571              		.file 3 "c:\\program files (x86)\\cypress\\psoc creator\\4.2\\psoc creator\\import\\gnu\\arm\\5.4.
 572              		.file 4 "Generated_Source\\PSoC5/cytypes.h"
 573              		.file 5 "Generated_Source\\PSoC5/core_cm3.h"
 574              		.file 6 "Generated_Source\\PSoC5/LEDDrive.h"
 575              		.file 7 "Generated_Source\\PSoC5/LabVIEW_UART.h"
 576              		.file 8 "Generated_Source\\PSoC5/ByteCounter.h"
 577              		.file 9 "Generated_Source\\PSoC5/StepperStart.h"
 578              		.file 10 "Generated_Source\\PSoC5/StepperCount.h"
 579              		.file 11 "Generated_Source\\PSoC5/UARTReset.h"
 580              		.file 12 "Generated_Source\\PSoC5/StepCountReset.h"
 581              		.file 13 "Generated_Source\\PSoC5/ByteCountReset.h"
 582              		.file 14 "Generated_Source\\PSoC5/StepperStep.h"
 583              		.file 15 "Generated_Source\\PSoC5/ByteReceived.h"
 584              		.file 16 "Generated_Source\\PSoC5/CommandReceived.h"
 585              		.file 17 "Generated_Source\\PSoC5/StepperInterrupt.h"
 586              		.file 18 "Generated_Source\\PSoC5/StepperDirection.h"